 PSINS

 Timestamp is 6590d335 (Sun Dec 31 10:34:29 2023)

 Preferred load address is 00400000

 Start         Length     Name                   Class
 0001:00000000 0005a8f8H .text                   CODE
 0001:0005a900 00000723H .text$x                 CODE
 0002:00000000 00002778H .rdata                  DATA
 0002:00002778 0000017cH .rdata$r                DATA
 0002:000028f8 00000958H .xdata$x                DATA
 0002:00003250 00000699H .edata                  DATA
 0003:00000000 00000004H .CRT$XCA                DATA
 0003:00000004 00000024H .CRT$XCU                DATA
 0003:00000028 00000004H .CRT$XCZ                DATA
 0003:0000002c 00000004H .CRT$XIA                DATA
 0003:00000030 00000010H .CRT$XIC                DATA
 0003:00000040 00000004H .CRT$XIY                DATA
 0003:00000044 00000004H .CRT$XIZ                DATA
 0003:00000048 00000004H .CRT$XPA                DATA
 0003:0000004c 00000004H .CRT$XPX                DATA
 0003:00000050 00000004H .CRT$XPZ                DATA
 0003:00000054 00000004H .CRT$XTA                DATA
 0003:00000058 00000004H .CRT$XTB                DATA
 0003:0000005c 00000004H .CRT$XTZ                DATA
 0003:00000060 00003944H .data                   DATA
 0003:000039b0 00002079H .bss                    DATA
 0004:00000000 0000003cH .idata$2                DATA
 0004:0000003c 00000014H .idata$3                DATA
 0004:00000050 000001b0H .idata$4                DATA
 0004:00000200 000001b0H .idata$5                DATA
 0004:000003b0 00000782H .idata$6                DATA

  Address         Publics by Value              Rva+Base     Lib:Object

 0001:00000000       ??0CKFApp@@QAE@N@Z         00401000 f   KFApp.obj
 0001:00000060       ?Init@CKFApp@@UAEXABVCSINS@@H@Z 00401060 f   KFApp.obj
 0001:000004a0       ?RTOutput@CSINSTDKF@@UAEXXZ 004014a0 f i KFApp.obj
 0001:000004d0       ?Miscellanous@CSINSTDKF@@UAEXXZ 004014d0 f i KFApp.obj
 0001:00000500       ?SecretAttitude@CSINSTDKF@@UAEXXZ 00401500 f i KFApp.obj
 0001:00000530       ?SetMeas@CSINSGNSS@@UAEXXZ 00401530 f i KFApp.obj
 0001:00000560       _main                      00401560 f   Main_SinsGps.obj
 0001:000009f0       ??1CFileRdSr@@QAE@XZ       004019f0 f i Main_SinsGps.obj
 0001:00000a30       ??0CFileRdSr@@QAE@PBD@Z    00401a30 f i Main_SinsGps.obj
 0001:00000af0       ?load@CFileRdSr@@QAEHH@Z   00401af0 f i Main_SinsGps.obj
 0001:00000b40       ??0DataSensor@@QAE@XZ      00401b40 f i Main_SinsGps.obj
 0001:00001130       ??0CGLV@@QAE@NNNN@Z        00402130 f   PSINS.obj
 0001:00001430       ?toc@CGLV@@QAEHH@Z         00402430 f   PSINS.obj
 0001:000014a0       ??1CGLV@@QAE@XZ            004024a0 f   PSINS.obj
 0001:000014e0       ??0CVect3@@QAE@XZ          004024e0 f   PSINS.obj
 0001:00001510       ??0CVect3@@QAE@N@Z         00402510 f   PSINS.obj
 0001:00001570       ??0CVect3@@QAE@NNN@Z       00402570 f   PSINS.obj
 0001:000015d0       ??0CVect3@@QAE@PBN@Z       004025d0 f   PSINS.obj
 0001:00001640       ??0CVect3@@QAE@PBM@Z       00402640 f   PSINS.obj
 0001:000016a0       ?IsZero@@YAHABVCVect3@@N@Z 004026a0 f   PSINS.obj
 0001:00001740       ?IsZeroXY@@YAHABVCVect3@@N@Z 00402740 f   PSINS.obj
 0001:000017c0       ?IsNaN@@YAHABVCVect3@@@Z   004027c0 f   PSINS.obj
 0001:000017f0       ??HCVect3@@QBE?AV0@ABV0@@Z 004027f0 f   PSINS.obj
 0001:00001870       ??GCVect3@@QBE?AV0@ABV0@@Z 00402870 f   PSINS.obj
 0001:000018f0       ??DCVect3@@QBE?AV0@ABV0@@Z 004028f0 f   PSINS.obj
 0001:000019a0       ??DCVect3@@QBE?AV0@N@Z     004029a0 f   PSINS.obj
 0001:00001a20       ??DCVect3@@QBE?AV0@ABVCMat3@@@Z 00402a20 f   PSINS.obj
 0001:00001af0       ??KCVect3@@QBE?AV0@N@Z     00402af0 f   PSINS.obj
 0001:00001b70       ??KCVect3@@QBE?AV0@ABV0@@Z 00402b70 f   PSINS.obj
 0001:00001bf0       ??4CVect3@@QAEAAV0@N@Z     00402bf0 f   PSINS.obj
 0001:00001c50       ??4CVect3@@QAEAAV0@PBN@Z   00402c50 f   PSINS.obj
 0001:00001cc0       ??YCVect3@@QAEAAV0@ABV0@@Z 00402cc0 f   PSINS.obj
 0001:00001d20       ??ZCVect3@@QAEAAV0@ABV0@@Z 00402d20 f   PSINS.obj
 0001:00001d80       ??XCVect3@@QAEAAV0@N@Z     00402d80 f   PSINS.obj
 0001:00001de0       ??_0CVect3@@QAEAAV0@N@Z    00402de0 f   PSINS.obj
 0001:00001e40       ??_0CVect3@@QAEAAV0@ABV0@@Z 00402e40 f   PSINS.obj
 0001:00001ea0       ??D@YA?AVCVect3@@NABV0@@Z  00402ea0 f   PSINS.obj
 0001:00001f10       ??G@YA?AVCVect3@@ABV0@@Z   00402f10 f   PSINS.obj
 0001:00001f80       ??RCVect3@@QAEAANH@Z       00402f80 f   PSINS.obj
 0001:00001fb0       ?crossXY@@YANABVCVect3@@0@Z 00402fb0 f   PSINS.obj
 0001:00001ff0       ?vxv@@YA?AVCMat3@@ABVCVect3@@0@Z 00402ff0 f   PSINS.obj
 0001:000020e0       ?sqrt@@YA?AVCVect3@@ABV1@@Z 004030e0 f   PSINS.obj
 0001:00002160       ?pow@@YA?AVCVect3@@ABV1@H@Z 00403160 f   PSINS.obj
 0001:000021e0       ?abs@@YA?AVCVect3@@ABV1@@Z 004031e0 f   PSINS.obj
 0001:000022d0       ?maxabs@@YA?AVCVect3@@ABV1@0@Z 004032d0 f   PSINS.obj
 0001:000024d0       ?norm@@YANABVCVect3@@@Z    004034d0 f   PSINS.obj
 0001:00002530       ?normlize@@YANPAVCVect3@@@Z 00403530 f   PSINS.obj
 0001:000025a0       ?normInf@@YANABVCVect3@@@Z 004035a0 f   PSINS.obj
 0001:000026e0       ?normXY@@YANABVCVect3@@@Z  004036e0 f   PSINS.obj
 0001:00002730       ?normXYInf@@YANABVCVect3@@@Z 00403730 f   PSINS.obj
 0001:000027f0       ?dot@@YANABVCVect3@@0@Z    004037f0 f   PSINS.obj
 0001:00002840       ?dotmul@@YA?AVCVect3@@ABV1@0@Z 00403840 f   PSINS.obj
 0001:000028c0       ?dotdiv@@YA?AVCVect3@@ABV1@0@Z 004038c0 f   PSINS.obj
 0001:00002940       ?rv2q@@YA?AVCQuat@@ABVCVect3@@@Z 00403940 f   PSINS.obj
 0001:00002a90       ?rv2m@@YA?AVCMat3@@ABVCVect3@@@Z 00403a90 f   PSINS.obj
 0001:00002af0       ?askew@@YA?AVCMat3@@ABVCVect3@@@Z 00403af0 f   PSINS.obj
 0001:00002b90       ?pos2Cen@@YA?AVCMat3@@ABVCVect3@@@Z 00403b90 f   PSINS.obj
 0001:00002c90       ?pp2vn@@YA?AVCVect3@@ABV1@0NPAVCEarth@@@Z 00403c90 f   PSINS.obj
 0001:00002de0       ?pp2att@@YA?AVCVect3@@ABV1@0@Z 00403de0 f   PSINS.obj
 0001:00002e50       ?sinAng@@YANABVCVect3@@00@Z 00403e50 f   PSINS.obj
 0001:00002f40       ?MagYaw@@YANABVCVect3@@0N@Z 00403f40 f   PSINS.obj
 0001:00003030       ?xyz2blh@@YA?AVCVect3@@ABV1@@Z 00404030 f   PSINS.obj
 0001:000031f0       ?blh2xyz@@YA?AVCVect3@@ABV1@@Z 004041f0 f   PSINS.obj
 0001:00003300       ?Vxyz2enu@@YA?AVCVect3@@ABV1@0@Z 00404300 f   PSINS.obj
 0001:00003360       ?v2double@@YA?AVCVect3@@N@Z 00404360 f   PSINS.obj
 0001:00003430       ?v3double@@YA?AVCVect3@@N@Z 00404430 f   PSINS.obj
 0001:00003530       ?v5double@@YAXNAAVCVect3@@0@Z 00404530 f   PSINS.obj
 0001:00003620       ?sort@@YA?AVCVect3@@ABV1@@Z 00404620 f   PSINS.obj
 0001:000036f0       ?median@@YANABN00@Z        004046f0 f   PSINS.obj
 0001:00003750       ?median@@YANABVCVect3@@@Z  00404750 f   PSINS.obj
 0001:00003830       ?dm2r@@YA?AVCVect3@@ABV1@H@Z 00404830 f   PSINS.obj
 0001:00003900       ?v3mmm@@YA?AVCVect3@@ABV1@00PAV1@H0@Z 00404900 f   PSINS.obj
 0001:00003b80       ?fopp@@YA?AVCVect3@@ABV1@00@Z 00404b80 f   PSINS.obj
 0001:00003c80       ?fopp@@YA?AVCVect3@@ABV1@000@Z 00404c80 f   PSINS.obj
 0001:00003dd0       ?tp2att@@YA?AVCVect3@@ABV1@00@Z 00404dd0 f   PSINS.obj
 0001:00003f60       ?attract@@YA?AVCVect3@@ABV1@00@Z 00404f60 f   PSINS.obj
 0001:000040c0       ?ff2muxy@@YA?AVCVect3@@ABV1@0PBD1@Z 004050c0 f   PSINS.obj
 0001:000041d0       ??0CQuat@@QAE@XZ           004051d0 f   PSINS.obj
 0001:00004200       ??0CQuat@@QAE@NABVCVect3@@@Z 00405200 f   PSINS.obj
 0001:00004270       ??0CQuat@@QAE@NNNN@Z       00405270 f   PSINS.obj
 0001:000042e0       ??0CQuat@@QAE@PBN@Z        004052e0 f   PSINS.obj
 0001:00004370       ??HCQuat@@QBE?AV0@ABVCVect3@@@Z 00405370 f   PSINS.obj
 0001:00004400       ??GCQuat@@QBE?AV0@ABVCVect3@@@Z 00405400 f   PSINS.obj
 0001:00004480       ??GCQuat@@QBE?AVCVect3@@ABV0@@Z 00405480 f   PSINS.obj
 0001:000045c0       ??DCQuat@@QBE?AV0@ABV0@@Z  004055c0 f   PSINS.obj
 0001:000046f0       ??XCQuat@@QAEAAV0@ABV0@@Z  004056f0 f   PSINS.obj
 0001:00004740       ??ZCQuat@@QAEAAV0@ABVCVect3@@@Z 00405740 f   PSINS.obj
 0001:000047c0       ??S@YA?AVCQuat@@ABV0@@Z    004057c0 f   PSINS.obj
 0001:00004840       ??DCQuat@@QBE?AVCVect3@@ABV1@@Z 00405840 f   PSINS.obj
 0001:000049d0       ?SetYaw@CQuat@@QAEXN@Z     004059d0 f   PSINS.obj
 0001:00004a50       ?normlize@@YANPAVCQuat@@@Z 00405a50 f   PSINS.obj
 0001:00004b00       ?q2rv@@YA?AVCVect3@@ABVCQuat@@@Z 00405b00 f   PSINS.obj
 0001:00004c30       ?qq2phi@@YA?AVCVect3@@ABVCQuat@@0@Z 00405c30 f   PSINS.obj
 0001:00004ca0       ?addmu@@YA?AVCQuat@@ABV1@ABVCVect3@@@Z 00405ca0 f   PSINS.obj
 0001:00004d00       ?UpDown@@YA?AVCQuat@@ABV1@@Z 00405d00 f   PSINS.obj
 0001:00004d90       ??0CMat3@@QAE@XZ           00405d90 f   PSINS.obj
 0001:00004dc0       ??0CMat3@@QAE@N@Z          00405dc0 f   PSINS.obj
 0001:00004e70       ??0CMat3@@QAE@PBN@Z        00405e70 f   PSINS.obj
 0001:00004f80       ??0CMat3@@QAE@PBM@Z        00405f80 f   PSINS.obj
 0001:00005060       ??0CMat3@@QAE@NNN@Z        00406060 f   PSINS.obj
 0001:00005120       ??0CMat3@@QAE@NNNNNNNNN@Z  00406120 f   PSINS.obj
 0001:000051d0       ??0CMat3@@QAE@ABVCVect3@@00H@Z 004061d0 f   PSINS.obj
 0001:00005350       ?sv2att@@YA?AVCVect3@@ABV1@N0@Z 00406350 f   PSINS.obj
 0001:000054a0       ?dv2att@@YA?AVCVect3@@ABV1@000@Z 004064a0 f   PSINS.obj
 0001:00005730       ?mv2att@@YA?AVCVect3@@HPBV1@0ZZ 00406730 f   PSINS.obj
 0001:00005830       ?vn2att@@YA?AVCVect3@@ABV1@@Z 00406830 f   PSINS.obj
 0001:000058f0       ?atss@@YA?AVCVect3@@AAV1@0@Z 004068f0 f   PSINS.obj
 0001:000059c0       ??G@YA?AVCMat3@@ABV0@@Z    004069c0 f   PSINS.obj
 0001:00005a90       ??S@YA?AVCMat3@@ABV0@@Z    00406a90 f   PSINS.obj
 0001:00005b40       ??DCMat3@@QBE?AV0@ABV0@@Z  00406b40 f   PSINS.obj
 0001:00005d10       ??HCMat3@@QBE?AV0@ABV0@@Z  00406d10 f   PSINS.obj
 0001:00005df0       ??YCMat3@@QAEAAV0@ABV0@@Z  00406df0 f   PSINS.obj
 0001:00005ec0       ??HCMat3@@QBE?AV0@ABVCVect3@@@Z 00406ec0 f   PSINS.obj
 0001:00005f30       ??YCMat3@@QAEAAV0@ABVCVect3@@@Z 00406f30 f   PSINS.obj
 0001:00005f90       ??GCMat3@@QBE?AV0@ABV0@@Z  00406f90 f   PSINS.obj
 0001:00006070       ??DCMat3@@QBE?AV0@N@Z      00407070 f   PSINS.obj
 0001:00006150       ??RCMat3@@QAEAANHH@Z       00407150 f   PSINS.obj
 0001:00006190       ?SetRow@CMat3@@QAEXHABVCVect3@@@Z 00407190 f   PSINS.obj
 0001:00006200       ?SetClm@CMat3@@QAEXHABVCVect3@@@Z 00407200 f   PSINS.obj
 0001:00006270       ?GetRow@CMat3@@QBE?AVCVect3@@H@Z 00407270 f   PSINS.obj
 0001:000062f0       ?GetClm@CMat3@@QBE?AVCVect3@@H@Z 004072f0 f   PSINS.obj
 0001:00006370       ?Rot@@YA?AVCMat3@@ND@Z     00407370 f   PSINS.obj
 0001:000064f0       ?rotz@@YA?AVCVect3@@ABV1@N@Z 004074f0 f   PSINS.obj
 0001:000065a0       ?rcijk@@YA?AVCMat3@@ABV1@H@Z 004075a0 f   PSINS.obj
 0001:00006980       ?symmetry@@YAXAAVCMat3@@@Z 00407980 f   PSINS.obj
 0001:00006a20       ??D@YA?AVCMat3@@NABV0@@Z   00407a20 f   PSINS.obj
 0001:00006af0       ??DCMat3@@QBE?AVCVect3@@ABV1@@Z 00407af0 f   PSINS.obj
 0001:00006bc0       ?dotmul@@YA?AVCMat3@@ABV1@0@Z 00407bc0 f   PSINS.obj
 0001:00006c90       ?det@@YANABVCMat3@@@Z      00407c90 f   PSINS.obj
 0001:00006d20       ?trace@@YANABVCMat3@@@Z    00407d20 f   PSINS.obj
 0001:00006d50       ?pow@@YA?AVCMat3@@ABV1@H@Z 00407d50 f   PSINS.obj
 0001:00006de0       ?a2qua@@YA?AVCQuat@@NNN@Z  00407de0 f   PSINS.obj
 0001:00006f20       ?a2qua@@YA?AVCQuat@@ABVCVect3@@@Z 00407f20 f   PSINS.obj
 0001:00006f90       ?a2mat@@YA?AVCMat3@@ABVCVect3@@@Z 00407f90 f   PSINS.obj
 0001:000070e0       ?ar2mat@@YA?AVCMat3@@ABVCVect3@@@Z 004080e0 f   PSINS.obj
 0001:00007230       ?ar2qua@@YA?AVCQuat@@ABVCVect3@@@Z 00408230 f   PSINS.obj
 0001:00007290       ?m2att@@YA?AVCVect3@@ABVCMat3@@@Z 00408290 f   PSINS.obj
 0001:00007350       ?m2attr@@YA?AVCVect3@@ABVCMat3@@@Z 00408350 f   PSINS.obj
 0001:00007410       ?q2attr@@YA?AVCVect3@@ABVCQuat@@@Z 00408410 f   PSINS.obj
 0001:00007470       ?m2rv@@YA?AVCVect3@@ABVCMat3@@@Z 00408470 f   PSINS.obj
 0001:00007580       ?m2qua@@YA?AVCQuat@@ABVCMat3@@@Z 00408580 f   PSINS.obj
 0001:00007850       ?q2att@@YA?AVCVect3@@ABVCQuat@@@Z 00408850 f   PSINS.obj
 0001:000079c0       ?q2mat@@YA?AVCMat3@@ABVCQuat@@@Z 004089c0 f   PSINS.obj
 0001:00007b20       ?Ka2Cba@@YA?AVCMat3@@ABV1@AAVCVect3@@@Z 00408b20 f   PSINS.obj
 0001:00007c20       ?Cba2Ka@@YA?AVCMat3@@ABV1@ABVCVect3@@@Z 00408c20 f   PSINS.obj
 0001:00007cc0       ?Ka22Kpn@@YAXABVCVect3@@0AAV1@1@Z 00408cc0 f   PSINS.obj
 0001:00007d80       ?Kpn2Ka2@@YAXABVCVect3@@0AAV1@1@Z 00408d80 f   PSINS.obj
 0001:00007e30       ?KgMdf@@YAXAAVCMat3@@PBNH@Z 00408e30 f   PSINS.obj
 0001:000081b0       ?KaMdf@@YAXAAVCMat3@@PBNH@Z 004091b0 f   PSINS.obj
 0001:00008430       ?adj@@YA?AVCMat3@@ABV1@@Z  00409430 f   PSINS.obj
 0001:00008590       ?inv@@YA?AVCMat3@@ABV1@@Z  00409590 f   PSINS.obj
 0001:00008630       ?diag@@YA?AVCVect3@@ABVCMat3@@@Z 00409630 f   PSINS.obj
 0001:00008690       ?diag@@YA?AVCMat3@@ABVCVect3@@@Z 00409690 f   PSINS.obj
 0001:00008720       ?diag@@YA?AVCMat3@@NNN@Z   00409720 f   PSINS.obj
 0001:000087a0       ?askew@@YA?AVCMat3@@ABV1@H@Z 004097a0 f   PSINS.obj
 0001:000088d0       ?MMT@@YA?AVCMat3@@ABV1@0@Z 004098d0 f   PSINS.obj
 0001:00008a60       ?trMMT@@YANABVCMat3@@0@Z   00409a60 f   PSINS.obj
 0001:00008b20       ?norm@@YANABVCMat3@@@Z     00409b20 f   PSINS.obj
 0001:00008b70       ?sfoam@@YA?AVCMat3@@ABV1@H@Z 00409b70 f   PSINS.obj
 0001:00009280       ??0CMat@@QAE@XZ            0040a280 f   PSINS.obj
 0001:000092b0       ??0CMat@@QAE@HH@Z          0040a2b0 f   PSINS.obj
 0001:00009300       ??0CMat@@QAE@HHN@Z         0040a300 f   PSINS.obj
 0001:00009390       ??0CMat@@QAA@HHNNZZ        0040a390 f   PSINS.obj
 0001:00009440       ??0CMat@@QAE@HHPBN@Z       0040a440 f   PSINS.obj
 0001:000094c0       ??0CMat@@QAA@HPBVCVect@@ZZ 0040a4c0 f   PSINS.obj
 0001:00009560       ?Reset@CMat@@QAEXHH@Z      0040a560 f   PSINS.obj
 0001:000095b0       ?Clear@CMat@@QAEXXZ        0040a5b0 f   PSINS.obj
 0001:00009620       ??DCMat@@QBE?AV0@ABV0@@Z   0040a620 f   PSINS.obj
 0001:00009810       ??DCMat@@QBE?AV0@ABVCMat3@@@Z 0040a810 f   PSINS.obj
 0001:000098a0       ??DCMat@@QBE?AVCVect@@ABV1@@Z 0040a8a0 f   PSINS.obj
 0001:000099f0       ??HCMat@@QBE?AV0@ABV0@@Z   0040a9f0 f   PSINS.obj
 0001:00009af0       ??YCMat@@QAEAAV0@ABVCVect@@@Z 0040aaf0 f   PSINS.obj
 0001:00009b80       ??GCMat@@QBE?AV0@ABV0@@Z   0040ab80 f   PSINS.obj
 0001:00009c80       ??DCMat@@QBE?AV0@N@Z       0040ac80 f   PSINS.obj
 0001:00009d60       ??4CMat@@QAEAAV0@N@Z       0040ad60 f   PSINS.obj
 0001:00009dd0       ??YCMat@@QAEAAV0@ABV0@@Z   0040add0 f   PSINS.obj
 0001:00009e50       ??ZCMat@@QAEAAV0@ABV0@@Z   0040ae50 f   PSINS.obj
 0001:00009ed0       ??XCMat@@QAEAAV0@N@Z       0040aed0 f   PSINS.obj
 0001:00009f40       ??ECMat@@QAEAAV0@XZ        0040af40 f   PSINS.obj
 0001:00009fc0       ??S@YA?AVCMat@@ABV0@@Z     0040afc0 f   PSINS.obj
 0001:0000a0c0       ?symmetry@@YAXAAVCMat@@@Z  0040b0c0 f   PSINS.obj
 0001:0000a1b0       ?trace@@YANABVCMat@@@Z     0040b1b0 f   PSINS.obj
 0001:0000a230       ?dotmul@@YA?AVCMat@@ABV1@0@Z 0040b230 f   PSINS.obj
 0001:0000a320       ??RCMat@@QAEAANHH@Z        0040b320 f   PSINS.obj
 0001:0000a370       ?SetRow@CMat@@QAAXHNZZ     0040b370 f   PSINS.obj
 0001:0000a400       ?SetRow@CMat@@QAEXHABVCVect@@@Z 0040b400 f   PSINS.obj
 0001:0000a480       ?SetClm@CMat@@QAAXHNZZ     0040b480 f   PSINS.obj
 0001:0000a510       ?SetClm@CMat@@QAEXHABVCVect@@@Z 0040b510 f   PSINS.obj
 0001:0000a590       ?SetClmVect3@CMat@@QAEXHHABVCVect3@@@Z 0040b590 f   PSINS.obj
 0001:0000a620       ?SetClmVect3@CMat@@QAEXHHABVCVect3@@0@Z 0040b620 f   PSINS.obj
 0001:0000a6f0       ?SetClmVect3@CMat@@QAEXHHABVCVect3@@00@Z 0040b6f0 f   PSINS.obj
 0001:0000a7f0       ?SetRowVect3@CMat@@QAEXHHABVCVect3@@@Z 0040b7f0 f   PSINS.obj
 0001:0000a840       ?SetRowVect3@CMat@@QAEXHHABVCVect3@@0@Z 0040b840 f   PSINS.obj
 0001:0000a8a0       ?SetRowVect3@CMat@@QAEXHHABVCVect3@@00@Z 0040b8a0 f   PSINS.obj
 0001:0000a920       ?GetRowVect3@CMat@@QBE?AVCVect3@@HH@Z 0040b920 f   PSINS.obj
 0001:0000a970       ?GetClmVect3@CMat@@QBE?AVCVect3@@HH@Z 0040b970 f   PSINS.obj
 0001:0000aa20       ?SetDiagVect3@CMat@@QAEXHHABVCVect3@@@Z 0040ba20 f   PSINS.obj
 0001:0000aab0       ?GetDiagVect3@CMat@@QBE?AVCVect3@@HH@Z 0040bab0 f   PSINS.obj
 0001:0000ab70       ?SetAskew@CMat@@QAEXHHABVCVect3@@@Z 0040bb70 f   PSINS.obj
 0001:0000ac60       ?SetMat3@CMat@@QAEXHHABVCMat3@@@Z 0040bc60 f   PSINS.obj
 0001:0000acf0       ?SetMat3@CMat@@QAEXHHABVCMat3@@0@Z 0040bcf0 f   PSINS.obj
 0001:0000adb0       ?SetMat3@CMat@@QAEXHHABVCMat3@@00@Z 0040bdb0 f   PSINS.obj
 0001:0000aeb0       ?GetMat3@CMat@@QBE?AVCMat3@@HH@Z 0040beb0 f   PSINS.obj
 0001:0000af70       ?SubAddMat3@CMat@@QAEXHHABVCMat3@@@Z 0040bf70 f   PSINS.obj
 0001:0000b000       ?GetRow@CMat@@QBE?AVCVect@@H@Z 0040c000 f   PSINS.obj
 0001:0000b0e0       ?GetRow@CMat@@QAEXAAVCVect@@H@Z 0040c0e0 f   PSINS.obj
 0001:0000b190       ?GetClm@CMat@@QBE?AVCVect@@H@Z 0040c190 f   PSINS.obj
 0001:0000b270       ?GetClm@CMat@@QBA?AV1@HHZZ 0040c270 f   PSINS.obj
 0001:0000b3f0       ?GetClm@CMat@@QAEXAAVCVect@@H@Z 0040c3f0 f   PSINS.obj
 0001:0000b490       ?ZeroRow@CMat@@QAEXH@Z     0040c490 f   PSINS.obj
 0001:0000b500       ?ZeroClm@CMat@@QAEXH@Z     0040c500 f   PSINS.obj
 0001:0000b570       ?SetDiag@CMat@@QAAXNZZ     0040c570 f   PSINS.obj
 0001:0000b650       ?SetDiag2@CMat@@QAAXNZZ    0040c650 f   PSINS.obj
 0001:0000b730       ?SetAscend@CMat@@QAEXNN@Z  0040c730 f   PSINS.obj
 0001:0000b7a0       ?norm1@@YANABVCMat@@@Z     0040c7a0 f   PSINS.obj
 0001:0000b7e0       ?normInf@@YANABVCMat@@@Z   0040c7e0 f   PSINS.obj
 0001:0000b820       ?diag@@YA?AVCVect@@ABVCMat@@@Z 0040c820 f   PSINS.obj
 0001:0000b900       ?eye@@YA?AVCMat@@H@Z       0040c900 f   PSINS.obj
 0001:0000b9c0       ?inv4@@YA?AVCMat@@ABV1@@Z  0040c9c0 f   PSINS.obj
 0001:0000bca0       ?inv6@@YA?AVCMat@@ABV1@@Z  0040cca0 f   PSINS.obj
 0001:0000bf50       ?lss@@YA?AVCVect@@ABVCMat@@ABV1@@Z 0040cf50 f   PSINS.obj
 0001:0000c090       ?RowMul@@YAXAAVCMat@@ABV1@1HH@Z 0040d090 f   PSINS.obj
 0001:0000c1b0       ?RowMulT@@YAXAAVCMat@@ABV1@1HH@Z 0040d1b0 f   PSINS.obj
 0001:0000c2d0       ?diag@@YA?AVCMat@@ABVCVect@@@Z 0040d2d0 f   PSINS.obj
 0001:0000c3e0       ?DVMDVafa@@YAXABVCVect@@AAVCMat@@N@Z 0040d3e0 f   PSINS.obj
 0001:0000c4d0       ??0CVect@@QAE@XZ           0040d4d0 f   PSINS.obj
 0001:0000c500       ??0CVect@@QAE@HH@Z         0040d500 f   PSINS.obj
 0001:0000c570       ??0CVect@@QAE@HN@Z         0040d570 f   PSINS.obj
 0001:0000c5f0       ??0CVect@@QAE@HPBN@Z       0040d5f0 f   PSINS.obj
 0001:0000c670       ??0CVect@@QAA@HNNZZ        0040d670 f   PSINS.obj
 0001:0000c750       ??0CVect@@QAE@ABVCVect3@@@Z 0040d750 f   PSINS.obj
 0001:0000c7e0       ??0CVect@@QAE@ABVCVect3@@V1@@Z 0040d7e0 f   PSINS.obj
 0001:0000c890       ?Clear@CVect@@QAEXXZ       0040d890 f   PSINS.obj
 0001:0000c8f0       ?Reset@CVect@@QAEXHH@Z     0040d8f0 f   PSINS.obj
 0001:0000c960       ??G@YA?AVCVect@@ABV0@@Z    0040d960 f   PSINS.obj
 0001:0000ca00       ??S@YA?AVCVect@@ABV0@@Z    0040da00 f   PSINS.obj
 0001:0000ca60       ??DCVect@@QBE?AV0@ABVCMat@@@Z 0040da60 f   PSINS.obj
 0001:0000cbc0       ??DCVect@@QBE?AVCMat@@ABV0@@Z 0040dbc0 f   PSINS.obj
 0001:0000cd80       ??HCVect@@QBE?AV0@ABV0@@Z  0040dd80 f   PSINS.obj
 0001:0000ce60       ??GCVect@@QBE?AV0@ABV0@@Z  0040de60 f   PSINS.obj
 0001:0000cf40       ??DCVect@@QBE?AV0@N@Z      0040df40 f   PSINS.obj
 0001:0000d020       ??4CVect@@QAEAAV0@N@Z      0040e020 f   PSINS.obj
 0001:0000d090       ??4CVect@@QAEAAV0@PBN@Z    0040e090 f   PSINS.obj
 0001:0000d100       ??4CVect@@QAEAAV0@ABVCMat3@@@Z 0040e100 f   PSINS.obj
 0001:0000d170       ??YCVect@@QAEAAV0@ABV0@@Z  0040e170 f   PSINS.obj
 0001:0000d1f0       ??ZCVect@@QAEAAV0@ABV0@@Z  0040e1f0 f   PSINS.obj
 0001:0000d270       ??XCVect@@QAEAAV0@N@Z      0040e270 f   PSINS.obj
 0001:0000d2e0       ?dot@@YANABVCVect@@0@Z     0040e2e0 f   PSINS.obj
 0001:0000d360       ?dotmul@@YA?AVCVect@@ABV1@0@Z 0040e360 f   PSINS.obj
 0001:0000d450       ?pow@@YA?AVCVect@@ABV1@H@Z 0040e450 f   PSINS.obj
 0001:0000d540       ?abs@@YA?AVCVect@@ABV1@@Z  0040e540 f   PSINS.obj
 0001:0000d650       ?norm@@YANABVCVect@@@Z     0040e650 f   PSINS.obj
 0001:0000d690       ?norm1@@YANABVCVect@@@Z    0040e690 f   PSINS.obj
 0001:0000d6d0       ?normInf@@YANABVCVect@@@Z  0040e6d0 f   PSINS.obj
 0001:0000d710       ??RCVect@@QAEAANH@Z        0040e710 f   PSINS.obj
 0001:0000d740       ?Set@CVect@@QAAXNZZ        0040e740 f   PSINS.obj
 0001:0000d7d0       ?Set2@CVect@@QAAXNZZ       0040e7d0 f   PSINS.obj
 0001:0000d860       ?SetVect3@CVect@@QAEXHABVCVect3@@@Z 0040e860 f   PSINS.obj
 0001:0000d8a0       ?Set2Vect3@CVect@@QAEXHABVCVect3@@@Z 0040e8a0 f   PSINS.obj
 0001:0000d920       ?SetAscend@CVect@@QAEXNN@Z 0040e920 f   PSINS.obj
 0001:0000d990       ?SetBit@CVect@@QAEXIN@Z    0040e990 f   PSINS.obj
 0001:0000da00       ?SetBit@CVect@@QAEXIABVCVect3@@@Z 0040ea00 f   PSINS.obj
 0001:0000da90       ?Seti2j@CVect@@QAEXHHN@Z   0040ea90 f   PSINS.obj
 0001:0000db10       ?GetVect3@CVect@@QBE?AVCVect3@@H@Z 0040eb10 f   PSINS.obj
 0001:0000db50       ?mean@@YANABVCVect@@@Z     0040eb50 f   PSINS.obj
 0001:0000dbc0       ?sort@@YA?AVCVect@@ABV1@@Z 0040ebc0 f   PSINS.obj
 0001:0000dce0       ??0CPolyfit@@QAE@XZ        0040ece0 f   PSINS.obj
 0001:0000dd10       ?Init@CPolyfit@@UAEXNHN@Z  0040ed10 f   PSINS.obj
 0001:0000de50       ?SetP@CPolyfit@@QAAXNZZ    0040ee50 f   PSINS.obj
 0001:0000ded0       ?SetUD@CPolyfit@@QAAXNZZ   0040eed0 f   PSINS.obj
 0001:0000dfc0       ?SetHk@CPolyfit@@QAAXNZZ   0040efc0 f   PSINS.obj
 0001:0000e040       ?UpdateP@CPolyfit@@QAEXN@Z 0040f040 f   PSINS.obj
 0001:0000e2c0       ?Update@CPolyfit@@QAEXNN@Z 0040f2c0 f   PSINS.obj
 0001:0000e3e0       ?eval@CPolyfit@@QAENN@Z    0040f3e0 f   PSINS.obj
 0001:0000e4b0       ??0CPolyfit3@@QAE@XZ       0040f4b0 f   PSINS.obj
 0001:0000e510       ??_H@YGXPAXIHP6EX0@Z@Z     0040f510 f i PSINS.obj
 0001:0000e570       ?Init@CPolyfit3@@UAEXNHN@Z 0040f570 f   PSINS.obj
 0001:0000e600       ?Update@CPolyfit3@@QAEXABVCVect3@@N@Z 0040f600 f   PSINS.obj
 0001:0000e760       ?eval@CPolyfit3@@QAE?AVCVect3@@N@Z 0040f760 f   PSINS.obj
 0001:0000e880       ??0CIIR@@QAE@XZ            0040f880 f   PSINS.obj
 0001:0000e8b0       ??0CIIR@@QAE@PAN0H@Z       0040f8b0 f   PSINS.obj
 0001:0000e970       ?Update@CIIR@@QAENN@Z      0040f970 f   PSINS.obj
 0001:0000ea80       ??0CIIRV3@@QAE@XZ          0040fa80 f   PSINS.obj
 0001:0000eaf0       ??0CIIRV3@@QAE@PAN0H00H00H@Z 0040faf0 f   PSINS.obj
 0001:0000ec10       ?Update@CIIRV3@@QAE?AVCVect3@@ABV2@@Z 0040fc10 f   PSINS.obj
 0001:0000ecd0       ??0CRAvar@@QAE@XZ          0040fcd0 f   PSINS.obj
 0001:0000ed00       ??0CRAvar@@QAE@HH@Z        0040fd00 f   PSINS.obj
 0001:0000ed80       ?set@CRAvar@@QAEXNNNNH@Z   0040fd80 f   PSINS.obj
 0001:0000eea0       ?set@CRAvar@@QAEXABVCVect3@@000@Z 0040fea0 f   PSINS.obj
 0001:0000ef60       ?set@CRAvar@@QAEXABVCVect@@000@Z 0040ff60 f   PSINS.obj
 0001:0000f030       ?Update@CRAvar@@QAEXNNH@Z  00410030 f   PSINS.obj
 0001:0000f230       ?Update@CRAvar@@QAEXABVCVect3@@N@Z 00410230 f   PSINS.obj
 0001:0000f2b0       ?Update@CRAvar@@QAEXABVCVect@@N@Z 004102b0 f   PSINS.obj
 0001:0000f330       ??RCRAvar@@QBENH@Z         00410330 f   PSINS.obj
 0001:0000f3b0       ??0CVAR@@QAE@HN@Z          004103b0 f   PSINS.obj
 0001:0000f470       ?Update@CVAR@@QAENNH@Z     00410470 f   PSINS.obj
 0001:0000f5f0       ??0CVARn@@QAE@XZ           004105f0 f   PSINS.obj
 0001:0000f630       ??0CVARn@@QAE@HH@Z         00410630 f   PSINS.obj
 0001:0000f7b0       ??1CVARn@@QAE@XZ           004107b0 f   PSINS.obj
 0001:0000f810       ?Reset@CVARn@@QAEXXZ       00410810 f   PSINS.obj
 0001:0000f8a0       ?Update@CVARn@@QAEHPBN@Z   004108a0 f   PSINS.obj
 0001:0000fae0       ?Update@CVARn@@QAAHNZZ     00410ae0 f   PSINS.obj
 0001:0000fb70       ??0CContLarge@@QAE@XZ      00410b70 f   PSINS.obj
 0001:0000fba0       ??0CContLarge@@QAE@NNH@Z   00410ba0 f   PSINS.obj
 0001:0000fc10       ?Update@CContLarge@@QAEHNN@Z 00410c10 f   PSINS.obj
 0001:0000fcd0       ??0CAbnomalCnt@@QAE@XZ     00410cd0 f   PSINS.obj
 0001:0000fd00       ??0CAbnomalCnt@@QAE@HNNN@Z 00410d00 f   PSINS.obj
 0001:0000fdb0       ?Update@CAbnomalCnt@@QAEHNN@Z 00410db0 f   PSINS.obj
 0001:0000fe70       ??0CWzhold@@QAE@XZ         00410e70 f   PSINS.obj
 0001:0000fea0       ?Init@CWzhold@@QAEXNNNH@Z  00410ea0 f   PSINS.obj
 0001:0000ff60       ?Reset@CWzhold@@QAEXXZ     00410f60 f   PSINS.obj
 0001:0000ffd0       ?Update@CWzhold@@QAEHN@Z   00410fd0 f   PSINS.obj
 0001:00010310       ??0CMaxMin@@QAE@HHM@Z      00411310 f   PSINS.obj
 0001:00010360       ?Init@CMaxMin@@QAEXHHM@Z   00411360 f   PSINS.obj
 0001:00010490       ?Restart@CMaxMin@@QAEXXZ   00411490 f   PSINS.obj
 0001:000104e0       ?Update@CMaxMin@@QAEHM@Z   004114e0 f   PSINS.obj
 0001:000106c0       ??0CMaxMinn@@QAE@HHHM@Z    004116c0 f   PSINS.obj
 0001:00010720       ??_FCMaxMin@@QAEXXZ        00411720 f i PSINS.obj
 0001:00010760       ?Init@CMaxMinn@@QAEXHHHM@Z 00411760 f   PSINS.obj
 0001:00010800       ?Restart@CMaxMinn@@QAEXXZ  00411800 f   PSINS.obj
 0001:00010870       ?Update@CMaxMinn@@QAAHMZZ  00411870 f   PSINS.obj
 0001:00010910       ?Update@CMaxMinn@@QAEHABVCVect3@@@Z 00411910 f   PSINS.obj
 0001:000109a0       ?Update@CMaxMinn@@QAEHABVCVect3@@0@Z 004119a0 f   PSINS.obj
 0001:00010a80       ?Update@CMaxMinn@@QAEHABVCVect3@@00@Z 00411a80 f   PSINS.obj
 0001:00010bb0       ?Update@CMaxMinn@@QAEHABVCVect3@@000@Z 00411bb0 f   PSINS.obj
 0001:00010d30       ?Update@CMaxMinn@@QAEHABVCVect3@@0000@Z 00411d30 f   PSINS.obj
 0001:00010f10       ?ResFloat@CMaxMinn@@QAEMHH@Z 00411f10 f   PSINS.obj
 0001:00010f90       ?ResVect3@CMaxMinn@@QAE?AVCVect3@@HH@Z 00411f90 f   PSINS.obj
 0001:00011160       ??0CKalman@@QAE@XZ         00412160 f   PSINS.obj
 0001:000113c0       ??0CKalman@@QAE@HH@Z       004123c0 f   PSINS.obj
 0001:00011640       ?Init@CKalman@@QAEXHH@Z    00412640 f   PSINS.obj
 0001:00011c30       ?SetRmmbt@CKalman@@QAEXNNNN@Z 00412c30 f   PSINS.obj
 0001:00011d30       ?SetRmaxcount@CKalman@@QAEXH@Z 00412d30 f   PSINS.obj
 0001:00011da0       ?SetInnoMaxcount@CKalman@@QAEXH@Z 00412da0 f   PSINS.obj
 0001:00011e10       ?SetZmm@CKalman@@QAEXHHNH@Z 00412e10 f   PSINS.obj
 0001:00011e90       ?SetZmmVn@CKalman@@QAEXABVCVect3@@H@Z 00412e90 f   PSINS.obj
 0001:00011f10       ?SetZmmPos@CKalman@@QAEXABVCVect3@@H@Z 00412f10 f   PSINS.obj
 0001:00011f90       ?TimeUpdate@CKalman@@QAEXNH@Z 00412f90 f   PSINS.obj
 0001:000121b0       ?SetMeasFlag@CKalman@@QAEXIH@Z 004131b0 f   PSINS.obj
 0001:00012220       ?SetMeasMask@CKalman@@QAEXIH@Z 00413220 f   PSINS.obj
 0001:000122e0       ?SetMeasStop@CKalman@@QAEXIN@Z 004132e0 f   PSINS.obj
 0001:00012380       ?SetRadptStop@CKalman@@QAEXIN@Z 00413380 f   PSINS.obj
 0001:000123d0       ?MeasUpdate@CKalman@@QAEHN@Z 004133d0 f   PSINS.obj
 0001:00012770       ?MeasUD@@YAXQAN0QBNN0H@Z   00413770 f   PSINS.obj
 0001:00012aa0       ?RAdaptive@CKalman@@QAEHHNN@Z 00413aa0 f   PSINS.obj
 0001:00012cc0       ?RPkFading@CKalman@@QAEXH@Z 00413cc0 f   PSINS.obj
 0001:00012db0       ?ZmmPkSet@CKalman@@QAEXH@Z 00413db0 f   PSINS.obj
 0001:00012e80       ?XPConstrain@CKalman@@QAEXXZ 00413e80 f   PSINS.obj
 0001:000131c0       ?PmaxPminCheck@CKalman@@QAEXXZ 004141c0 f   PSINS.obj
 0001:000132c0       ?Feedback@CKalman@@UAEXHN@Z 004142c0 f   PSINS.obj
 0001:00013510       ?FeedbackAll@CKalman@@QAEXXZ 00414510 f   PSINS.obj
 0001:00013640       ?RtFading@CKalman@@QAEXHN@Z 00414640 f   PSINS.obj
 0001:00013790       ?fusion@@YAXPAN0PBN1H00@Z  00414790 f   PSINS.obj
 0001:00013940       ?fusion@@YAXAAVCVect3@@0V1@1@Z 00414940 f   PSINS.obj
 0001:00013990       ?fusion@@YAXAAVCVect3@@0V1@100@Z 00414990 f   PSINS.obj
 0001:000139e0       ??0CSINSTDKF@@QAE@XZ       004149e0 f   PSINS.obj
 0001:00013ac0       ??0CSINSTDKF@@QAE@HH@Z     00414ac0 f   PSINS.obj
 0001:00013be0       ?Init@CSINSTDKF@@QAEXABVCSINS@@@Z 00414be0 f   PSINS.obj
 0001:00013e00       ?TDReset@CSINSTDKF@@QAEXXZ 00414e00 f   PSINS.obj
 0001:00013e70       ?Innovationi@CSINSTDKF@@QAENH@Z 00414e70 f   PSINS.obj
 0001:00013f20       ?TDUpdate@CSINSTDKF@@QAEHPBVCVect3@@0HNH@Z 00414f20 f   PSINS.obj
 0001:00014e00       ?MeasUpdate@CSINSTDKF@@QAEXABVCVect@@NN@Z 00415e00 f   PSINS.obj
 0001:00014fc0       ?MarkovGyro@CSINSTDKF@@QAEXABVCVect3@@0H@Z 00415fc0 f   PSINS.obj
 0001:00015040       ?MarkovAcc@CSINSTDKF@@QAEXABVCVect3@@0H@Z 00416040 f   PSINS.obj
 0001:000150c0       ?SetYaw@CSINSTDKF@@QAEXNHH@Z 004160c0 f   PSINS.obj
 0001:000152c0       ?PSetVertCh@CSINSTDKF@@QAEXNNN@Z 004162c0 f   PSINS.obj
 0001:000153a0       ?SetCalcuBurden@CSINSTDKF@@QAENIH@Z 004163a0 f   PSINS.obj
 0001:00015520       ??0CSINSGNSS@@QAE@XZ       00416520 f   PSINS.obj
 0001:00015580       ??0CSINSGNSS@@QAE@HHNH@Z   00416580 f   PSINS.obj
 0001:000157c0       ?Init@CSINSGNSS@@QAEXABVCSINS@@H@Z 004167c0 f   PSINS.obj
 0001:00016b60       ?SetFt@CSINSGNSS@@UAEXH@Z  00417b60 f   PSINS.obj
 0001:00017330       ?SetHk@CSINSGNSS@@UAEXH@Z  00418330 f   PSINS.obj
 0001:00017490       ?Feedback@CSINSGNSS@@UAEXHN@Z 00418490 f   PSINS.obj
 0001:00017870       ?SetMeasGNSS@CSINSGNSS@@QAEXABVCVect3@@0N@Z 00418870 f   PSINS.obj
 0001:00017a40       ?MeasGNSSZvStop@CSINSGNSS@@QAEXAAVCVect3@@N@Z 00418a40 f   PSINS.obj
 0001:00017b00       ?MeasGNSSZpStop@CSINSGNSS@@QAEXAAVCVect3@@N@Z 00418b00 f   PSINS.obj
 0001:00017bc0       ?MeasGNSSZp2X@CSINSGNSS@@QAEXAAVCVect3@@@Z 00418bc0 f   PSINS.obj
 0001:00017c80       ?Leveling@CSINSGNSS@@QAEXXZ 00418c80 f   PSINS.obj
 0001:00017d40       ?Update@CSINSGNSS@@QAEHPBVCVect3@@0HNH@Z 00418d40 f   PSINS.obj
 0001:00017dd0       ??6CSINSGNSS@@QAEXAAVCFileRdWt@@@Z 00418dd0 f   PSINS.obj
 0001:00017ed0       ?LogXk@CSINSGNSS@@QAEXXZ   00418ed0 f   PSINS.obj
 0001:00018340       ??0CSysClbt@@QAE@ABVCVect3@@NH@Z 00419340 f   PSINS.obj
 0001:00018450       ?SetHk@CSysClbt@@UAEXH@Z   00419450 f i PSINS.obj
 0001:00018480       ?SetMeas@CSysClbt@@UAEXXZ  00419480 f i PSINS.obj
 0001:000184b0       ?Init@CSysClbt@@QAEXN@Z    004194b0 f   PSINS.obj
 0001:00018d40       ?NextIter@CSysClbt@@QAEXXZ 00419d40 f   PSINS.obj
 0001:000192a0       ?SetFt@CSysClbt@@UAEXH@Z   0041a2a0 f   PSINS.obj
 0001:000198e0       ?Feedback@CSysClbt@@UAEXHN@Z 0041a8e0 f   PSINS.obj
 0001:00019be0       ?Update@CSysClbt@@QAEHPBVCVect3@@0HNH@Z 0041abe0 f   PSINS.obj
 0001:00019cf0       ?Log@CSysClbt@@QAEXXZ      0041acf0 f   PSINS.obj
 0001:00019ea0       ?LogXk@CSysClbt@@QAEXXZ    0041aea0 f   PSINS.obj
 0001:0001a220       ??0CPOS618@@QAE@XZ         0041b220 f   PSINS.obj
 0001:0001a2c0       ??0CPOS618@@QAE@NNH@Z      0041b2c0 f   PSINS.obj
 0001:0001a500       ??1CPOS618@@QAE@XZ         0041b500 f   PSINS.obj
 0001:0001a6f0       ??_GCRMemory@@QAEPAXI@Z    0041b6f0 f i PSINS.obj
 0001:0001a750       ??_GCSmooth@@QAEPAXI@Z     0041b750 f i PSINS.obj
 0001:0001a7b0       ??_GCFileRdWt@@QAEPAXI@Z   0041b7b0 f i PSINS.obj
 0001:0001a810       ?Load@CPOS618@@QAEHPADNN@Z 0041b810 f   PSINS.obj
 0001:0001ac80       ?Init@CPOS618@@QAEXNABVCVect3@@@Z 0041bc80 f   PSINS.obj
 0001:0001b140       ?Forward@CPOS618@@QAEXXZ   0041c140 f   PSINS.obj
 0001:0001b4c0       ?Backward@CPOS618@@QAEXXZ  0041c4c0 f   PSINS.obj
 0001:0001b960       ?Reverse@CPOS618@@QAEXXZ   0041c960 f   PSINS.obj
 0001:0001bb90       ?Smooth@CPOS618@@QAEXXZ    0041cb90 f   PSINS.obj
 0001:0001bbc0       ?Process@CPOS618@@QAEXPADH@Z 0041cbc0 f   PSINS.obj
 0001:0001bca0       ??0CSINSGNSSCNS@@QAE@XZ    0041cca0 f   PSINS.obj
 0001:0001bd00       ??0CSINSGNSSCNS@@QAE@N@Z   0041cd00 f   PSINS.obj
 0001:0001bdd0       ?SetCNS@CSINSGNSSCNS@@QAEXHHHNNN@Z 0041cdd0 f   PSINS.obj
 0001:0001be70       ?Init@CSINSGNSSCNS@@QAEXABVCSINS@@H@Z 0041ce70 f   PSINS.obj
 0001:0001c260       ?SetHk@CSINSGNSSCNS@@UAEXH@Z 0041d260 f   PSINS.obj
 0001:0001c310       ?Feedback@CSINSGNSSCNS@@UAEXHN@Z 0041d310 f   PSINS.obj
 0001:0001c3a0       ?SetMeasCNS@CSINSGNSSCNS@@QAEXAAVCQuat@@@Z 0041d3a0 f   PSINS.obj
 0001:0001c490       ?SetMeasCNS@CSINSGNSSCNS@@QAEXAAVCVect3@@@Z 0041d490 f   PSINS.obj
 0001:0001c550       ??0CSINSGNSSDR@@QAE@XZ     0041d550 f   PSINS.obj
 0001:0001c5d0       ?SetHk@CSINSGNSSDR@@UAEXH@Z 0041d5d0 f i PSINS.obj
 0001:0001c600       ??0CSINSGNSSDR@@QAE@N@Z    0041d600 f   PSINS.obj
 0001:0001c790       ?Init@CSINSGNSSDR@@QAEXABVCSINS@@H@Z 0041d790 f   PSINS.obj
 0001:0001cda0       ?SetFt@CSINSGNSSDR@@UAEXH@Z 0041dda0 f   PSINS.obj
 0001:0001cf30       ?Feedback@CSINSGNSSDR@@UAEXHN@Z 0041df30 f   PSINS.obj
 0001:0001d020       ?SetMeas@CSINSGNSSDR@@UAEXXZ 0041e020 f   PSINS.obj
 0001:0001d0b0       ?SetMeasGNSS@CSINSGNSSDR@@QAEXABVCVect3@@0N@Z 0041e0b0 f   PSINS.obj
 0001:0001d2f0       ?Update@CSINSGNSSDR@@QAEHPBVCVect3@@0NHNH@Z 0041e2f0 f   PSINS.obj
 0001:0001d450       ??0CSINSGNSSOD@@QAE@XZ     0041e450 f   PSINS.obj
 0001:0001d560       ?SetMeas@CSINSGNSSOD@@UAEXXZ 0041e560 f i PSINS.obj
 0001:0001d590       ??0CSINSGNSSOD@@QAE@HHNH@Z 0041e590 f   PSINS.obj
 0001:0001d7e0       ?Init@CSINSGNSSOD@@QAEXABVCSINS@@H@Z 0041e7e0 f   PSINS.obj
 0001:0001d870       ?SetDistance@CSINSGNSSOD@@QAEXN@Z 0041e870 f   PSINS.obj
 0001:0001d930       ?ODKappa@CSINSGNSSOD@@QAE?AVCVect3@@ABV2@@Z 0041e930 f   PSINS.obj
 0001:0001da30       ?ODVelUpdate@CSINSGNSSOD@@QAEHN@Z 0041ea30 f   PSINS.obj
 0001:0001e110       ?Update@CSINSGNSSOD@@QAEHPBVCVect3@@0NHNH@Z 0041f110 f   PSINS.obj
 0001:0001e1b0       ??6CSINSGNSSOD@@QAEXAAVCFileRdWt@@@Z 0041f1b0 f   PSINS.obj
 0001:0001e320       ??0CAutoDrive@@QAE@XZ      0041f320 f   PSINS.obj
 0001:0001e390       ?SetMeas@CAutoDrive@@UAEXXZ 0041f390 f i PSINS.obj
 0001:0001e3c0       ??0CAutoDrive@@QAE@N@Z     0041f3c0 f   PSINS.obj
 0001:0001e590       ?Init@CAutoDrive@@QAEXABVCSINS@@H@Z 0041f590 f   PSINS.obj
 0001:0001ea70       ?SetFt@CAutoDrive@@UAEXH@Z 0041fa70 f   PSINS.obj
 0001:0001eab0       ?SetHk@CAutoDrive@@UAEXH@Z 0041fab0 f   PSINS.obj
 0001:0001eae0       ?Feedback@CAutoDrive@@UAEXHN@Z 0041fae0 f   PSINS.obj
 0001:0001ebb0       ?ZUPTtest@CAutoDrive@@QAEXXZ 0041fbb0 f   PSINS.obj
 0001:0001ecb0       ?ZIHRtest@CAutoDrive@@QAEXXZ 0041fcb0 f   PSINS.obj
 0001:0001edb0       ?NHCtest@CAutoDrive@@QAEXXZ 0041fdb0 f   PSINS.obj
 0001:0001ef00       ?SetGNSSFixMode@CAutoDrive@@QAEXH@Z 0041ff00 f   PSINS.obj
 0001:0001f0d0       ?Update@CAutoDrive@@QAEHPBVCVect3@@0NHNH@Z 004200d0 f   PSINS.obj
 0001:0001f310       ??0CSGOClbt@@QAE@N@Z       00420310 f   PSINS.obj
 0001:0001f3e0       ?Init@CSGOClbt@@QAEXABVCSINS@@H@Z 004203e0 f   PSINS.obj
 0001:0001f930       ?SetFt@CSGOClbt@@UAEXH@Z   00420930 f   PSINS.obj
 0001:0001f9a0       ?SetHk@CSGOClbt@@UAEXH@Z   004209a0 f   PSINS.obj
 0001:0001fa60       ?Feedback@CSGOClbt@@UAEXHN@Z 00420a60 f   PSINS.obj
 0001:0001fba0       ?Update@CSGOClbt@@QAEHPBVCVect3@@0NHNH@Z 00420ba0 f   PSINS.obj
 0001:0001fc80       ??0CVAutoPOS@@QAE@XZ       00420c80 f   PSINS.obj
 0001:0001fcd0       ??0CVAutoPOS@@QAE@N@Z      00420cd0 f   PSINS.obj
 0001:0001fd30       ?Init@CVAutoPOS@@UAEXABVCSINS@@H@Z 00420d30 f   PSINS.obj
 0001:0001ffd0       ?SetFt@CVAutoPOS@@UAEXH@Z  00420fd0 f   PSINS.obj
 0001:00020010       ?SetHk@CVAutoPOS@@UAEXH@Z  00421010 f   PSINS.obj
 0001:00020040       ?Feedback@CVAutoPOS@@UAEXHN@Z 00421040 f   PSINS.obj
 0001:00020110       ?Update@CVAutoPOS@@QAEHPBVCVect3@@0NHNH@Z 00421110 f   PSINS.obj
 0001:000201f0       ?Init@CCAM@@QAEXABVCVect3@@0NN@Z 004211f0 f   PSINS.obj
 0001:000202c0       ?Init@CCAM@@QAEXABVCVect3@@NN@Z 004212c0 f   PSINS.obj
 0001:00020330       ?Update@CCAM@@QAEXNNNN@Z   00421330 f   PSINS.obj
 0001:00020430       ?Update@CCAM@@QAEXNN@Z     00421430 f   PSINS.obj
 0001:00020690       ?Init@CCALLH@@QAEXAAVCSINS@@ABVCVect3@@@Z 00421690 f   PSINS.obj
 0001:00020860       ?Update@CCALLH@@QAEXABVCSINS@@ABVCVect3@@1@Z 00421860 f   PSINS.obj
 0001:00020a50       ?Update@CCALLH@@QAEXABVCVect3@@0@Z 00421a50 f   PSINS.obj
 0001:00020b00       ?OutLLH@CCALLH@@QAEXXZ     00421b00 f   PSINS.obj
 0001:00020d00       ??0CGKP@@QAE@NN@Z          00421d00 f   PSINS.obj
 0001:00020d50       ?Init@CGKP@@QAEXNN@Z       00421d50 f   PSINS.obj
 0001:00020fb0       ?GKPCore@CGKP@@AAE?AVCVect3@@ABV2@@Z 00421fb0 f   PSINS.obj
 0001:000213b0       ?IGKPCore@CGKP@@AAE?AVCVect3@@ABV2@@Z 004223b0 f   PSINS.obj
 0001:00021850       ?GKP@CGKP@@QAE?AVCVect3@@ABV2@@Z 00422850 f   PSINS.obj
 0001:00021930       ?IGKP@CGKP@@QAE?AVCVect3@@ABV2@@Z 00422930 f   PSINS.obj
 0001:00021a10       ??0CEarth@@QAE@NNN@Z       00422a10 f   PSINS.obj
 0001:00021ba0       ?Update@CEarth@@QAEXABVCVect3@@0H@Z 00422ba0 f   PSINS.obj
 0001:000220b0       ?vn2dpos@CEarth@@QBE?AVCVect3@@ABV2@N@Z 004230b0 f   PSINS.obj
 0001:00022140       ?vn2dpos@CEarth@@QBEXAAVCVect3@@ABV2@N@Z 00423140 f   PSINS.obj
 0001:000221a0       ??0CIMU@@QAE@XZ            004231a0 f   PSINS.obj
 0001:000227f0       ?Reset@CIMU@@QAEXXZ        004237f0 f   PSINS.obj
 0001:000228c0       ?SetRFU@CIMU@@QAEXPBD@Z    004238c0 f   PSINS.obj
 0001:00022930       ?SetSf@CIMU@@QAEXABVCVect3@@0@Z 00423930 f   PSINS.obj
 0001:00022990       ?SetTemp@CIMU@@QAEXPANH@Z  00423990 f   PSINS.obj
 0001:00022a60       ?SetKga@CIMU@@QAEXABVCMat3@@VCVect3@@0ABV3@@Z 00423a60 f   PSINS.obj
 0001:00022ae0       ?SetgSens@CIMU@@QAEXABVCMat3@@00@Z 00423ae0 f   PSINS.obj
 0001:00022b90       ?SetKa2@CIMU@@QAEXABVCVect3@@@Z 00423b90 f   PSINS.obj
 0001:00022be0       ?SetKapn@CIMU@@QAEXABVCVect3@@@Z 00423be0 f   PSINS.obj
 0001:00022c30       ?SetLvtGA@CIMU@@QAEXABVCVect3@@00N@Z 00423c30 f   PSINS.obj
 0001:00022cc0       ?SetTau@CIMU@@QAEXABVCVect3@@00@Z 00423cc0 f   PSINS.obj
 0001:00022d30       ?SetCba@CIMU@@QAEXABVCMat3@@@Z 00423d30 f   PSINS.obj
 0001:00023010       ?GetMeanwf@CIMU@@QAENAAVCVect3@@0H@Z 00424010 f   PSINS.obj
 0001:00023110       ?Update@CIMU@@QAENPBVCVect3@@0HN@Z 00424110 f   PSINS.obj
 0001:000242b0       ?IMURFU@@YAXPAVCVect3@@HPBD@Z 004252b0 f   PSINS.obj
 0001:00024410       ?IMURFU@@YAXPAVCVect3@@0HPBD@Z 00425410 f   PSINS.obj
 0001:00024470       ?IMUStatic@@YAXAAVCVect3@@000N@Z 00425470 f   PSINS.obj
 0001:000245b0       ?lsclbt@@YA?AVCMat@@AAV1@0@Z 004255b0 f   PSINS.obj
 0001:00024880       ??0CIMUInc@@QAE@NN@Z       00425880 f   PSINS.obj
 0001:000248d0       ?Init@CIMUInc@@QAEXNN@Z    004258d0 f   PSINS.obj
 0001:00024a40       ?Update@CIMUInc@@QAEXABVCVect3@@0@Z 00425a40 f   PSINS.obj
 0001:00024c10       ??0CIMUInv@@QAE@ABVCVect3@@00NN@Z 00425c10 f   PSINS.obj
 0001:00024df0       ?Update@CIMUInv@@QAEXABVCVect3@@0@Z 00425df0 f   PSINS.obj
 0001:000252d0       ??0CSINS@@QAE@NABVCVect3@@N@Z 004262d0 f   PSINS.obj
 0001:00025650       ??0CSINS@@QAE@ABVCVect3@@00N@Z 00426650 f   PSINS.obj
 0001:000259c0       ??0CSINS@@QAE@ABVCQuat@@ABVCVect3@@1N@Z 004269c0 f   PSINS.obj
 0001:00025d20       ?Init@CSINS@@QAEXABVCVect3@@00N@Z 00426d20 f   PSINS.obj
 0001:00025d80       ?Init@CSINS@@QAEXABVCQuat@@ABVCVect3@@1N@Z 00426d80 f   PSINS.obj
 0001:000262c0       ?SetTauGA@CSINS@@QAEXABVCVect3@@0@Z 004272c0 f   PSINS.obj
 0001:000264e0       ?Update@CSINS@@QAEXPBVCVect3@@0HN@Z 004274e0 f   PSINS.obj
 0001:000276e0       ?Extrap@CSINS@@QAEXABVCVect3@@0N@Z 004286e0 f   PSINS.obj
 0001:000278a0       ?Extrap@CSINS@@QAEXN@Z     004288a0 f   PSINS.obj
 0001:00027a20       ?lever@CSINS@@QAEXABVCVect3@@PAV2@1@Z 00428a20 f   PSINS.obj
 0001:00027c60       ?lever2@CSINS@@QAEXABVCVect3@@PAV2@1PBV2@2@Z 00428c60 f   PSINS.obj
 0001:00027e20       ?atss@CSINS@@QAEXPAN0@Z    00428e20 f   PSINS.obj
 0001:00027ea0       ?etm@CSINS@@QAEXXZ         00428ea0 f   PSINS.obj
 0001:000283d0       ?AddErr@CSINS@@QAEXABVCVect3@@00@Z 004293d0 f   PSINS.obj
 0001:00028480       ?AddErr@CSINS@@QAEXNABVCVect3@@0@Z 00429480 f   PSINS.obj
 0001:000284e0       ?Leveling@CSINS@@QAEXH@Z   004294e0 f   PSINS.obj
 0001:00028630       ?DebugStop@CSINS@@QAEXNHH@Z 00429630 f   PSINS.obj
 0001:000286f0       ??0CDR@@QAE@XZ             004296f0 f   PSINS.obj
 0001:000287e0       ?Init@CDR@@QAEXABVCSINS@@ABVCVect3@@@Z 004297e0 f   PSINS.obj
 0001:00028870       ?Init@CDR@@QAEXABVCVect3@@00N@Z 00429870 f   PSINS.obj
 0001:00028a30       ?Update@CDR@@QAEXABVCVect3@@NN0@Z 00429a30 f   PSINS.obj
 0001:00028cf0       ?SetGCK@CDR@@QAEXN@Z       00429cf0 f   PSINS.obj
 0001:00028e10       ?Leveling@CDR@@QAEXABVCVect3@@N@Z 00429e10 f   PSINS.obj
 0001:00028fe0       ?Calibrate@CDR@@QAE?AVCVect3@@ABV2@00N@Z 00429fe0 f   PSINS.obj
 0001:000291e0       ??0CCNS@@QAE@XZ            0042a1e0 f   PSINS.obj
 0001:00029350       ?SetdT@CCNS@@QAEXNN@Z      0042a350 f   PSINS.obj
 0001:000293b0       ?Setxyp@CCNS@@QAEXNN@Z     0042a3b0 f   PSINS.obj
 0001:000294a0       ?JD@CCNS@@QAENHHHN@Z       0042a4a0 f   PSINS.obj
 0001:00029570       ?Precmat@CCNS@@QAE?AVCMat3@@N@Z 0042a570 f   PSINS.obj
 0001:000296a0       ?Equinox@CCNS@@QAEXN@Z     0042a6a0 f   PSINS.obj
 0001:000298b0       ?Nutmat@CCNS@@QAE?AVCMat3@@N@Z 0042a8b0 f   PSINS.obj
 0001:000299a0       ?GAST@CCNS@@QAENNN@Z       0042a9a0 f   PSINS.obj
 0001:00029af0       ?GetCie@CCNS@@QAE?AVCMat3@@NN@Z 0042aaf0 f   PSINS.obj
 0001:00029c70       ?GetCns@CCNS@@QAE?AVCMat3@@ABVCQuat@@ABVCVect3@@NABV2@@Z 0042ac70 f   PSINS.obj
 0001:00029dc0       ??0CAVPInterp@@QAE@XZ      0042adc0 f   PSINS.obj
 0001:00029e60       ?Init@CAVPInterp@@QAEXABVCSINS@@NHH@Z 0042ae60 f   PSINS.obj
 0001:00029f00       ?Init@CAVPInterp@@QAEXABVCVect3@@00NH@Z 0042af00 f   PSINS.obj
 0001:00029ff0       ?Push@CAVPInterp@@QAEXABVCSINS@@H@Z 0042aff0 f   PSINS.obj
 0001:0002a080       ?Push@CAVPInterp@@QAEXABVCVect3@@00@Z 0042b080 f   PSINS.obj
 0001:0002a130       ?Interp@CAVPInterp@@QAEHNH@Z 0042b130 f   PSINS.obj
 0001:0002a560       ?timestr@@YAPADHPAD@Z      0042b560 f   PSINS.obj
 0001:0002a610       ?time2fname@@YAPADXZ       0042b610 f   PSINS.obj
 0001:0002a660       ?DirI@CFileRdWt@@SAXPBD@Z  0042b660 f   PSINS.obj
 0001:0002a6f0       ?DirO@CFileRdWt@@SAXPBD@Z  0042b6f0 f   PSINS.obj
 0001:0002a780       ?Dir@CFileRdWt@@SAXPBD0@Z  0042b780 f   PSINS.obj
 0001:0002a7e0       ??0CFileRdWt@@QAE@XZ       0042b7e0 f   PSINS.obj
 0001:0002a810       ??0CFileRdWt@@QAE@PBDH@Z   0042b810 f   PSINS.obj
 0001:0002a880       ??1CFileRdWt@@QAE@XZ       0042b880 f   PSINS.obj
 0001:0002a8d0       ?Init@CFileRdWt@@QAEXPBDH@Z 0042b8d0 f   PSINS.obj
 0001:0002acb0       ?load@CFileRdWt@@QAEHHH@Z  0042bcb0 f   PSINS.obj
 0001:0002b180       ?loadf32@CFileRdWt@@QAEHH@Z 0042c180 f   PSINS.obj
 0001:0002b270       ?load@CFileRdWt@@QAEJPAEJ@Z 0042c270 f   PSINS.obj
 0001:0002b320       ?bwseek@CFileRdWt@@QAEXHH@Z 0042c320 f   PSINS.obj
 0001:0002b390       ?filesize@CFileRdWt@@QAEJH@Z 0042c390 f   PSINS.obj
 0001:0002b460       ?getl@CFileRdWt@@QAEHXZ    0042c460 f   PSINS.obj
 0001:0002b4c0       ?savepos@CFileRdWt@@QAEJH@Z 0042c4c0 f   PSINS.obj
 0001:0002b550       ?restorepos@CFileRdWt@@QAEHH@Z 0042c550 f   PSINS.obj
 0001:0002b5d0       ?waitfor@CFileRdWt@@QAEHHNN@Z 0042c5d0 f   PSINS.obj
 0001:0002b670       ??6CFileRdWt@@QAEAAV0@N@Z  0042c670 f   PSINS.obj
 0001:0002b6c0       ??6CFileRdWt@@QAEAAV0@ABVCVect3@@@Z 0042c6c0 f   PSINS.obj
 0001:0002b710       ??6CFileRdWt@@QAEAAV0@ABVCQuat@@@Z 0042c710 f   PSINS.obj
 0001:0002b760       ??6CFileRdWt@@QAEAAV0@ABVCMat3@@@Z 0042c760 f   PSINS.obj
 0001:0002b7b0       ??6CFileRdWt@@QAEAAV0@ABVCVect@@@Z 0042c7b0 f   PSINS.obj
 0001:0002b810       ??6CFileRdWt@@QAEAAV0@ABVCMat@@@Z 0042c810 f   PSINS.obj
 0001:0002b870       ??6CFileRdWt@@QAEAAV0@ABVCRAvar@@@Z 0042c870 f   PSINS.obj
 0001:0002b8d0       ??6CFileRdWt@@QAEAAV0@ABVCMaxMinn@@@Z 0042c8d0 f   PSINS.obj
 0001:0002b9e0       ??6CFileRdWt@@QAEAAV0@ABVCAligni0@@@Z 0042c9e0 f   PSINS.obj
 0001:0002ba70       ??6CFileRdWt@@QAEAAV0@ABVCPolyfit@@@Z 0042ca70 f   PSINS.obj
 0001:0002bae0       ??6CFileRdWt@@QAEAAV0@ABVCPolyfit3@@@Z 0042cae0 f   PSINS.obj
 0001:0002bb50       ??6CFileRdWt@@QAEAAV0@ABVCIMU@@@Z 0042cb50 f   PSINS.obj
 0001:0002bbc0       ??6CFileRdWt@@QAEAAV0@ABVCSINS@@@Z 0042cbc0 f   PSINS.obj
 0001:0002bcd0       ??6CFileRdWt@@QAEAAV0@ABVCDR@@@Z 0042ccd0 f   PSINS.obj
 0001:0002bd50       ??6CFileRdWt@@QAEAAV0@ABVCRMemory@@@Z 0042cd50 f   PSINS.obj
 0001:0002bda0       ??6CFileRdWt@@QAEAAV0@AAVCKalman@@@Z 0042cda0 f   PSINS.obj
 0001:0002be80       ??5CFileRdWt@@QAEAAV0@AAN@Z 0042ce80 f   PSINS.obj
 0001:0002bed0       ??5CFileRdWt@@QAEAAV0@AAVCVect3@@@Z 0042ced0 f   PSINS.obj
 0001:0002bf20       ??5CFileRdWt@@QAEAAV0@AAVCQuat@@@Z 0042cf20 f   PSINS.obj
 0001:0002bf70       ??5CFileRdWt@@QAEAAV0@AAVCMat3@@@Z 0042cf70 f   PSINS.obj
 0001:0002bfc0       ??5CFileRdWt@@QAEAAV0@AAVCVect@@@Z 0042cfc0 f   PSINS.obj
 0001:0002c020       ??5CFileRdWt@@QAEAAV0@AAVCMat@@@Z 0042d020 f   PSINS.obj
 0001:0002c080       ??0CFileList@@QAE@PBD000@Z 0042d080 f   PSINS.obj
 0001:0002c2c0       ?NextFile@CFileList@@QAEPADXZ 0042d2c0 f   PSINS.obj
 0001:0002c5d0       ??1CFileList@@QAE@XZ       0042d5d0 f   PSINS.obj
 0001:0002c6a0       ??0CFileLog@@QAE@XZ        0042d6a0 f   PSINS.obj
 0001:0002c710       ?LogSet@CFileLog@@QAEAAV1@HPBD@Z 0042d710 f   PSINS.obj
 0001:0002c830       ??1CFileLog@@QAE@XZ        0042d830 f   PSINS.obj
 0001:0002c8a0       ?LogDate@CFileLog@@QAEAAV1@H@Z 0042d8a0 f   PSINS.obj
 0001:0002c930       ?LogRunTime@CFileLog@@QAEAAV1@H@Z 0042d930 f   PSINS.obj
 0001:0002c9b0       ??6CFileLog@@QAEAAV0@PBD@Z 0042d9b0 f   PSINS.obj
 0001:0002ca10       ??6CFileLog@@QAEAAV0@H@Z   0042da10 f   PSINS.obj
 0001:0002ca70       ??6CFileLog@@QAEAAV0@M@Z   0042da70 f   PSINS.obj
 0001:0002cae0       ??6CFileLog@@QAEAAV0@N@Z   0042dae0 f   PSINS.obj
 0001:0002cb40       ??6CFileLog@@QAEAAV0@ABVCVect3@@@Z 0042db40 f   PSINS.obj
 0001:0002cbc0       ??6CFileLog@@QAEAAV0@ABVCQuat@@@Z 0042dbc0 f   PSINS.obj
 0001:0002cc50       ??6CFileLog@@QAEAAV0@ABVCVect@@@Z 0042dc50 f   PSINS.obj
 0001:0002cce0       ??6CFileLog@@QAEAAV0@ABVCMat3@@@Z 0042dce0 f   PSINS.obj
 0001:0002cdd0       ??6CFileLog@@QAEAAV0@ABVCMat@@@Z 0042ddd0 f   PSINS.obj
 0001:0002ceb0       ?CMArray@CFileLog@@QAEAAV1@PBDPBNHHN0@Z 0042deb0 f   PSINS.obj
 0001:0002cf50       ?CArray@CFileLog@@QAEAAV1@PBDPBNHHN0@Z 0042df50 f   PSINS.obj
 0001:0002d1b0       ?MArray@CFileLog@@QAEAAV1@PBDPBNHHN0@Z 0042e1b0 f   PSINS.obj
 0001:0002d340       ?Flush@CFileLog@@QAEXH@Z   0042e340 f   PSINS.obj
 0001:0002d3b0       ??0CFileCfg@@QAE@XZ        0042e3b0 f   PSINS.obj
 0001:0002d3f0       ??1CFileCfg@@QAE@XZ        0042e3f0 f   PSINS.obj
 0001:0002d450       ??6CFileCfg@@QAEAAV0@PBD@Z 0042e450 f   PSINS.obj
 0001:0002d500       ??5CFileCfg@@QAEAAV0@PBD@Z 0042e500 f   PSINS.obj
 0001:0002d5d0       ??6CFileCfg@@QAEAAV0@F@Z   0042e5d0 f   PSINS.obj
 0001:0002d620       ??6CFileCfg@@QAEAAV0@H@Z   0042e620 f   PSINS.obj
 0001:0002d670       ??6CFileCfg@@QAEAAV0@M@Z   0042e670 f   PSINS.obj
 0001:0002d6c0       ??6CFileCfg@@QAEAAV0@N@Z   0042e6c0 f   PSINS.obj
 0001:0002d710       ??6CFileCfg@@QAEAAV0@ABVCVect3@@@Z 0042e710 f   PSINS.obj
 0001:0002d760       ??6CFileCfg@@QAEAAV0@ABVCQuat@@@Z 0042e760 f   PSINS.obj
 0001:0002d7b0       ??6CFileCfg@@QAEAAV0@ABVCMat3@@@Z 0042e7b0 f   PSINS.obj
 0001:0002d800       ??6CFileCfg@@QAEAAV0@ABVCMat@@@Z 0042e800 f   PSINS.obj
 0001:0002d860       ??5CFileCfg@@QAEAAV0@AAF@Z 0042e860 f   PSINS.obj
 0001:0002d8d0       ??5CFileCfg@@QAEAAV0@AAH@Z 0042e8d0 f   PSINS.obj
 0001:0002d940       ??5CFileCfg@@QAEAAV0@AAM@Z 0042e940 f   PSINS.obj
 0001:0002d9c0       ??5CFileCfg@@QAEAAV0@AAN@Z 0042e9c0 f   PSINS.obj
 0001:0002da50       ??5CFileCfg@@QAEAAV0@AAVCVect3@@@Z 0042ea50 f   PSINS.obj
 0001:0002dae0       ??5CFileCfg@@QAEAAV0@AAVCQuat@@@Z 0042eae0 f   PSINS.obj
 0001:0002db80       ??5CFileCfg@@QAEAAV0@AAVCMat3@@@Z 0042eb80 f   PSINS.obj
 0001:0002dc20       ??4CFileCfg@@QAEAAV0@AAV0@@Z 0042ec20 f   PSINS.obj
 0001:0002dc60       ?WriteCfg@@YA?AVCFileCfg@@PBD0@Z 0042ec60 f   PSINS.obj
 0001:0002dd40       ?ReadCfg@@YA?AVCFileCfg@@PBD0@Z 0042ed40 f   PSINS.obj
 0001:0002de20       ??0CRMemory@@QAE@XZ        0042ee20 f   PSINS.obj
 0001:0002de50       ??0CRMemory@@QAE@JH@Z      0042ee50 f   PSINS.obj
 0001:0002ded0       ??0CRMemory@@QAE@PAEJH@Z   0042eed0 f   PSINS.obj
 0001:0002df20       ?Init@CRMemory@@QAEXPAEJH@Z 0042ef20 f   PSINS.obj
 0001:0002dfc0       ??1CRMemory@@QAE@XZ        0042efc0 f   PSINS.obj
 0001:0002e010       ??4CRMemory@@QAEXABV0@@Z   0042f010 f   PSINS.obj
 0001:0002e150       ?pop@CRMemory@@QAEEPAE@Z   0042f150 f   PSINS.obj
 0001:0002e240       ?get@CRMemory@@QAEPAEH@Z   0042f240 f   PSINS.obj
 0001:0002e2a0       ?set@CRMemory@@QAEPAEHPBE@Z 0042f2a0 f   PSINS.obj
 0001:0002e340       ?push@CRMemory@@QAEHPBE@Z  0042f340 f   PSINS.obj
 0001:0002e440       ??0CSmooth@@QAE@HH@Z       0042f440 f   PSINS.obj
 0001:0002e590       ??1CSmooth@@QAE@XZ         0042f590 f   PSINS.obj
 0001:0002e600       ?Update@CSmooth@@QAE?AVCVect@@PBNPAN@Z 0042f600 f   PSINS.obj
 0001:0002e750       ??0CInterp@@QAE@PAPANHH@Z  0042f750 f   PSINS.obj
 0001:0002e890       ??0CInterp@@QAE@PBDH@Z     0042f890 f   PSINS.obj
 0001:0002eab0       ??1CInterp@@QAE@XZ         0042fab0 f   PSINS.obj
 0001:0002eb60       ?Interp@CInterp@@QAENNPAN@Z 0042fb60 f   PSINS.obj
 0001:0002ee40       ?flipud@@YAPAEPAEHH@Z      0042fe40 f   PSINS.obj
 0001:0002ef60       ??0CContinuousCnt@@QAE@H@Z 0042ff60 f   PSINS.obj
 0001:0002efb0       ?Update@CContinuousCnt@@QAEHH@Z 0042ffb0 f   PSINS.obj
 0001:0002f050       ?Alignsb@@YA?AVCVect3@@ABV1@0N@Z 00430050 f   PSINS.obj
 0001:0002f2a0       ?Alignsb@@YA?AVCVect3@@ABV1@00@Z 004302a0 f   PSINS.obj
 0001:0002f300       ??0CAligni0@@QAE@ABVCVect3@@0H@Z 00430300 f   PSINS.obj
 0001:0002f460       ?Init@CAligni0@@QAEXABVCVect3@@0H@Z 00430460 f   PSINS.obj
 0001:0002f5f0       ?Update@CAligni0@@QAE?AVCQuat@@PBVCVect3@@0HNABV3@@Z 004305f0 f   PSINS.obj
 0001:0002fc60       ??0CAligni0fit@@QAE@XZ     00430c60 f   PSINS.obj
 0001:0002fd70       ??0CAligni0fit@@QAE@ABVCVect3@@@Z 00430d70 f   PSINS.obj
 0001:0002fe90       ?Init@CAligni0fit@@QAEXABVCVect3@@@Z 00430e90 f   PSINS.obj
 0001:000300e0       ?Update@CAligni0fit@@QAE?AVCQuat@@PBVCVect3@@0HN@Z 004310e0 f   PSINS.obj
 0001:00030870       ?pi0t@CAligni0fit@@QAE?AVCVect3@@N@Z 00431870 f   PSINS.obj
 0001:00030990       ?pib0t@CAligni0fit@@QAE?AVCVect3@@N@Z 00431990 f   PSINS.obj
 0001:00030a70       ??0CAlignkf@@QAE@XZ        00431a70 f   PSINS.obj
 0001:00030ad0       ??0CAlignkf@@QAE@N@Z       00431ad0 f   PSINS.obj
 0001:00030b80       ??0CAlignkf@@QAE@ABVCSINS@@N@Z 00431b80 f   PSINS.obj
 0001:00030c00       ?Init@CAlignkf@@QAEXABVCSINS@@@Z 00431c00 f   PSINS.obj
 0001:000310f0       ?Update@CAlignkf@@QAEHPBVCVect3@@0HNH@Z 004320f0 f   PSINS.obj
 0001:000311d0       ?Update@CAlignkf@@QAEHPBVCVect3@@0HNABV2@H@Z 004321d0 f   PSINS.obj
 0001:000312c0       ??0CAligntrkang@@QAE@NNNN@Z 004322c0 f   PSINS.obj
 0001:000313a0       ?Init@CAligntrkang@@QAEXABVCSINS@@@Z 004323a0 f   PSINS.obj
 0001:00031880       ?Update@CAligntrkang@@QAEHPBVCVect3@@0HNABV2@H@Z 00432880 f   PSINS.obj
 0001:00031b90       ??0CAlignsv@@QAE@XZ        00432b90 f   PSINS.obj
 0001:00031bf0       ??0CAlignsv@@QAE@N@Z       00432bf0 f   PSINS.obj
 0001:00031c70       ??0CAlignsv@@QAE@ABVCVect3@@NNN@Z 00432c70 f   PSINS.obj
 0001:00031d10       ?Init@CAlignsv@@QAEXABVCVect3@@NNN@Z 00432d10 f   PSINS.obj
 0001:00031ef0       ??1CAlignsv@@QAE@XZ        00432ef0 f   PSINS.obj
 0001:00031f70       ?Update@CAlignsv@@QAEHPBVCVect3@@0H@Z 00432f70 f   PSINS.obj
 0001:000321c0       ??0CAligntf@@QAE@N@Z       004331c0 f   PSINS.obj
 0001:00032270       ??0CAligntf@@QAE@ABVCSINS@@N@Z 00433270 f   PSINS.obj
 0001:000322f0       ?Init@CAligntf@@QAEXABVCSINS@@@Z 004332f0 f   PSINS.obj
 0001:00032800       ?SetFt@CAligntf@@UAEXH@Z   00433800 f   PSINS.obj
 0001:00032880       ?SetHk@CAligntf@@UAEXH@Z   00433880 f   PSINS.obj
 0001:000329c0       ?Feedback@CAligntf@@UAEXHN@Z 004339c0 f   PSINS.obj
 0001:00032ab0       ?Update@CAligntf@@QAEHPBVCVect3@@0HNH@Z 00433ab0 f   PSINS.obj
 0001:00032b40       ?SetMeasVnAtt@CAligntf@@QAEXABVCVect3@@0@Z 00433b40 f   PSINS.obj
 0001:00032cc0       ??6CAligntf@@QAEXAAVCFileRdWt@@@Z 00433cc0 f   PSINS.obj
 0001:00032d80       ?swap16@@YAGG@Z            00433d80 f   PSINS.obj
 0001:00032dd0       ?swap24@@YAPAEPAE0@Z       00433dd0 f   PSINS.obj
 0001:00032e30       ?swap32@@YAII@Z            00433e30 f   PSINS.obj
 0001:00032ea0       ?swap64@@YAKK@Z            00433ea0 f   PSINS.obj
 0001:00032f40       ?int24@@YAPAEPAEH@Z        00433f40 f   PSINS.obj
 0001:00032fb0       ?diffint24@@YAHPBE0@Z      00433fb0 f   PSINS.obj
 0001:00033090       ?r2dm@@YANN@Z              00434090 f   PSINS.obj
 0001:00033130       ?dm2r@@YANN@Z              00434130 f   PSINS.obj
 0001:000331d0       ?logtrigger@@YAHHN@Z       004341d0 f   PSINS.obj
 0001:00033240       ?IsZero@@YAHNN@Z           00434240 f i PSINS.obj
 0001:00033290       ?sign@@YAHNN@Z             00434290 f   PSINS.obj
 0001:000332f0       ?range@@YANNNN@Z           004342f0 f   PSINS.obj
 0001:00033360       ?maxn@@YANPBNH@Z           00434360 f   PSINS.obj
 0001:000333d0       ?minn@@YANPBNH@Z           004343d0 f   PSINS.obj
 0001:00033440       ?norm1@@YANPBNH@Z          00434440 f   PSINS.obj
 0001:000334c0       ?norm@@YANPBNH@Z           004344c0 f   PSINS.obj
 0001:00033540       ?normInf@@YANPBNH@Z        00434540 f   PSINS.obj
 0001:000335d0       ?attract@@YANNNN@Z         004345d0 f   PSINS.obj
 0001:00033640       ?polyval@@YANPBNHN@Z       00434640 f   PSINS.obj
 0001:000336a0       ?atan2Ex@@YANNN@Z          004346a0 f   PSINS.obj
 0001:00033740       ?diffYaw@@YANNN@Z          00434740 f   PSINS.obj
 0001:000337b0       ?MKQt@@YANNN@Z             004347b0 f   PSINS.obj
 0001:000337e0       ?MKQt@@YA?AVCVect3@@ABV1@0@Z 004347e0 f   PSINS.obj
 0001:00033870       ?unixt2gpst@@YANNH@Z       00434870 f   PSINS.obj
 0001:000338c0       ?chkhdr@@YAHPBD0@Z         004348c0 f   PSINS.obj
 0001:00033930       ?randn@@YANNN@Z            00434930 f   PSINS.obj
 0001:000339f0       ?randn@@YA?AVCVect3@@ABV1@0@Z 004349f0 f   PSINS.obj
 0001:00033aa0       ?randn@@YA?AVCVect@@ABV1@0@Z 00434aa0 f   PSINS.obj
 0001:00033ba0       ?randn@@YA?AVCMat3@@ABV1@ABN@Z 00434ba0 f   PSINS.obj
 0001:00033c40       ?randn@@YA?AVCMat@@ABV1@ABN@Z 00434c40 f   PSINS.obj
 0001:00033d30       ?deci@@YAPAHHPAH@Z         00434d30 f   PSINS.obj
 0001:00033e40       ?add@@YAXAAVCVect3@@ABV1@1@Z 00434e40 f   PSINS.obj
 0001:00033ea0       ?add@@YAXAAVCMat3@@ABV1@1@Z 00434ea0 f   PSINS.obj
 0001:00033f60       ?add@@YAXAAVCVect@@ABV1@1@Z 00434f60 f   PSINS.obj
 0001:00033fe0       ?add@@YAXAAVCMat@@ABV1@1@Z 00434fe0 f   PSINS.obj
 0001:00034060       ?sub@@YAXAAVCVect3@@ABV1@1@Z 00435060 f   PSINS.obj
 0001:000340c0       ?sub@@YAXAAVCMat3@@ABV1@1@Z 004350c0 f   PSINS.obj
 0001:00034180       ?sub@@YAXAAVCVect@@ABV1@1@Z 00435180 f   PSINS.obj
 0001:00034200       ?sub@@YAXAAVCMat@@ABV1@1@Z 00435200 f   PSINS.obj
 0001:00034280       ?cros@@YAXAAVCVect3@@ABV1@1@Z 00435280 f   PSINS.obj
 0001:00034320       ?dotmul@@YAXAAVCVect3@@ABV1@1@Z 00435320 f   PSINS.obj
 0001:00034380       ?dotdiv@@YAXAAVCVect3@@ABV1@1@Z 00435380 f   PSINS.obj
 0001:000343e0       ?mul@@YAXAAVCVect3@@ABV1@ABN@Z 004353e0 f   PSINS.obj
 0001:00034430       ?mul@@YAXAAVCMat3@@ABV1@ABN@Z 00435430 f   PSINS.obj
 0001:000344f0       ?mul@@YAXAAVCVect@@ABV1@ABN@Z 004354f0 f   PSINS.obj
 0001:00034580       ?mul@@YAXAAVCVect@@ABVCMat@@ABV1@@Z 00435580 f   PSINS.obj
 0001:00034660       ?mul@@YAXAAVCMat@@ABV1@ABN@Z 00435660 f   PSINS.obj
 0001:000346f0       ?mul@@YAXAAVCVect3@@ABVCMat3@@ABV1@@Z 004356f0 f   PSINS.obj
 0001:000347a0       ?mul@@YAXAAVCVect3@@ABV1@ABVCMat3@@@Z 004357a0 f   PSINS.obj
 0001:00034850       ?mul@@YAXAAVCMat3@@ABV1@1@Z 00435850 f   PSINS.obj
 0001:00034a50       ?mul@@YAXAAVCQuat@@ABV1@1@Z 00435a50 f   PSINS.obj
 0001:00034b80       ?mul@@YAXAAVCVect3@@ABVCQuat@@ABV1@@Z 00435b80 f   PSINS.obj
 0001:00034ce0       ?_TT@@YAXAAVCMat3@@ABV1@@Z 00435ce0 f   PSINS.obj
 0001:00034da0       ?rv2q@@YAXAAVCQuat@@ABVCVect3@@@Z 00435da0 f   PSINS.obj
 0001:00034ec0       ?qdelphi@@YAXAAVCQuat@@ABVCVect3@@@Z 00435ec0 f   PSINS.obj
 0001:00034fe0       ?q2mat@@YAXAAVCMat3@@ABVCQuat@@@Z 00435fe0 f   PSINS.obj
 0001:00035120       ?m2att@@YAXAAVCVect3@@ABVCMat3@@@Z 00436120 f   PSINS.obj
 0001:000352b0       _asinf                     004362b0 f i PSINS.obj
 0001:000352f0       _atan2f                    004362f0 f i PSINS.obj
 0001:00035340       ?AXbt@@YAXAAVCVect3@@ABVCMat3@@ABV1@2ABN@Z 00436340 f   PSINS.obj
 0001:00035430       ?sizedisp@@YAXH@Z          00436430 f   PSINS.obj
 0001:00035550       ?Demo_User@@YAXXZ          00436550 f   PSINS_Demo.obj
 0001:00035970       ?Demo_CIIRV3@@YAXXZ        00436970 f   PSINS_Demo.obj
 0001:00035b50       ?Demo_CMaxMin@@YAXXZ       00436b50 f   PSINS_Demo.obj
 0001:00035cc0       ?Demo_CVAR@@YAXXZ          00436cc0 f   PSINS_Demo.obj
 0001:00035e10       ?Demo_CVARn@@YAXXZ         00436e10 f   PSINS_Demo.obj
 0001:00035f80       ?Demo_CRAvar@@YAXXZ        00436f80 f   PSINS_Demo.obj
 0001:00036110       ?Demo_CSINS_static@@YAXXZ  00437110 f   PSINS_Demo.obj
 0001:00036480       ?Demo_CAlignsv@@YAXXZ      00437480 f   PSINS_Demo.obj
 0001:00036640       ??0CFileIMU6@@QAE@PBD@Z    00437640 f i PSINS_Demo.obj
 0001:000368e0       ??1CFileIMU6@@QAE@XZ       004378e0 f i PSINS_Demo.obj
 0001:00036920       ?Demo_CAligntf@@YAXXZ      00437920 f   PSINS_Demo.obj
 0001:00036be0       ?load@CFileIMU6@@QAEHHH@Z  00437be0 f i PSINS_Demo.obj
 0001:00036cf0       ?Demo_CAlign_CSINS@@YAXXZ  00437cf0 f   PSINS_Demo.obj
 0001:00036f80       ?Demo_CSINSGNSS@@YAXXZ     00437f80 f   PSINS_Demo.obj
 0001:00037490       ??0CFileIMUGNSS@@QAE@PBD@Z 00438490 f i PSINS_Demo.obj
 0001:00037690       ?load@CFileIMUGNSS@@QAEHH@Z 00438690 f i PSINS_Demo.obj
 0001:00037700       ??1CFileIMUGNSS@@QAE@XZ    00438700 f i PSINS_Demo.obj
 0001:00037740       ?Demo_CSINSGNSSDR@@YAXXZ   00438740 f   PSINS_Demo.obj
 0001:00037a20       ??0CFileRdSr49@@QAE@PBD@Z  00438a20 f i PSINS_Demo.obj
 0001:00037b20       ?load@CFileRdSr49@@QAEHH@Z 00438b20 f i PSINS_Demo.obj
 0001:00037ce0       ?waitforgps@CFileRdSr49@@QAEHXZ 00438ce0 f i PSINS_Demo.obj
 0001:00037d50       ??0DataSensor49@@QAE@XZ    00438d50 f i PSINS_Demo.obj
 0001:00037de0       ??1CFileRdSr49@@QAE@XZ     00438de0 f i PSINS_Demo.obj
 0001:00037e20       ?Demo_SINSOD@@YAXXZ        00438e20 f   PSINS_Demo.obj
 0001:000380b0       ?Demo_POS618@@YAXXZ        004390b0 f   PSINS_Demo.obj
 0001:000381c0       ?Demo_CNS_PrecNut@@YAXXZ   004391c0 f   PSINS_Demo.obj
 0001:000383a0       ?Demo_SINSCNS@@YAXXZ       004393a0 f   PSINS_Demo.obj
 0001:000386f0       ?Demo_IMUTempCompensate@@YAXXZ 004396f0 f   PSINS_Demo.obj
 0001:000387e0       ?Demo_CVCFileFind@@YAXXZ   004397e0 f   PSINS_Demo.obj
 0001:00038800       ?Demo_DSP_main@@YAXXZ      00439800 f   PSINS_Demo.obj
 0001:00038820       ?Demo_CONSOLE_UART@@YAXXZ  00439820 f   PSINS_Demo.obj
 0001:00038840       ?Demo_Cfg@@YAXXZ           00439840 f   PSINS_Demo.obj
 0001:00038a40       ?Demo_CPolyfit@@YAXXZ      00439a40 f   PSINS_Demo.obj
 0001:00038cb0       ?Demo_CAligni0@@YAXXZ      00439cb0 f   PSINS_Demo.obj
 0001:00038f70       ?Demo_SysClbt@@YAXXZ       00439f70 f   PSINS_Demo.obj
 0001:00039270       ??0CFileIMUClbt@@QAE@PBDAAVCIMU@@@Z 0043a270 f i PSINS_Demo.obj
 0001:00039330       ?load@CFileIMUClbt@@QAEHH@Z 0043a330 f i PSINS_Demo.obj
 0001:00039380       ?aligni0@CFileIMUClbt@@QAE?AVCVect3@@HAAV2@@Z 0043a380 f i PSINS_Demo.obj
 0001:00039590       ??1CFileIMUClbt@@QAE@XZ    0043a590 f i PSINS_Demo.obj
 0001:000395d0       ?Demo_GKP@@YAXXZ           0043a5d0 f   PSINS_Demo.obj
 0001:000397b0       ?Demo_CIMUInc@@YAXXZ       0043a7b0 f   PSINS_Demo.obj
 0001:00039930       ?Demo_Extract_Txt_File@@YAXXZ 0043a930 f   PSINS_Demo.obj
 0001:00039ab0       ?Demo_operator_pointer_run_time@@YAXXZ 0043aab0 f   PSINS_Demo.obj
 0001:00039d00       ?getRegKeyValues@@YA_NV?$basic_string@DU?$char_traits@D@std@@V?$allocator@D@2@@std@@AAV?$list@V?$basic_string@DU?$char_traits@D@std@@V?$allocator@D@2@@std@@V?$allocator@V?$basic_string@DU?$char_traits@D@std@@V?$allocator@D@2@@std@@@2@@2@@Z 0043ad00 f   SerialPort.obj
 0001:0003a010       ??0CSerialPort@itas109@@QAE@XZ 0043b010 f   SerialPort.obj
 0001:0003a160       ??1CSerialPort@itas109@@UAE@XZ 0043b160 f   SerialPort.obj
 0001:0003a250       ?InitPort@CSerialPort@itas109@@QAEHPAUHWND__@@IIDIIKIKKKKK@Z 0043b250 f   SerialPort.obj
 0001:0003a7f0       ?CommThread@CSerialPort@itas109@@KGKPAX@Z 0043b7f0 f   SerialPort.obj
 0001:0003ac50       ?StartMonitoring@CSerialPort@itas109@@QAEHXZ 0043bc50 f   SerialPort.obj
 0001:0003acc0       ?ResumeMonitoring@CSerialPort@itas109@@QAEHXZ 0043bcc0 f   SerialPort.obj
 0001:0003ad10       ?SuspendMonitoring@CSerialPort@itas109@@QAEHXZ 0043bd10 f   SerialPort.obj
 0001:0003ad60       ?IsThreadSuspend@CSerialPort@itas109@@QAEHPAX@Z 0043bd60 f   SerialPort.obj
 0001:0003add0       ?ProcessErrorMessage@CSerialPort@itas109@@IAEXPAD@Z 0043bdd0 f   SerialPort.obj
 0001:0003ae90       ?WriteChar@CSerialPort@itas109@@KAXPAV12@@Z 0043be90 f   SerialPort.obj
 0001:0003b1c0       ?ReceiveChar@CSerialPort@itas109@@KAXPAV12@@Z 0043c1c0 f   SerialPort.obj
 0001:0003b480       ?ReceiveStr@CSerialPort@itas109@@KAXPAV12@@Z 0043c480 f   SerialPort.obj
 0001:0003b780       ?GetDCB@CSerialPort@itas109@@QAE?AU_DCB@@XZ 0043c780 f   SerialPort.obj
 0001:0003b7c0       ?GetCommEvents@CSerialPort@itas109@@QAEKXZ 0043c7c0 f   SerialPort.obj
 0001:0003b7f0       ?GetWriteBufferSize@CSerialPort@itas109@@QAEKXZ 0043c7f0 f   SerialPort.obj
 0001:0003b820       ?IsOpened@CSerialPort@itas109@@QAEHXZ 0043c820 f   SerialPort.obj
 0001:0003b860       ?ClosePort@CSerialPort@itas109@@QAEXXZ 0043c860 f   SerialPort.obj
 0001:0003ba20       ?WriteToPort@CSerialPort@itas109@@QAEXPADI@Z 0043ca20 f   SerialPort.obj
 0001:0003bb10       ?WriteToPort@CSerialPort@itas109@@QAEXPAEI@Z 0043cb10 f   SerialPort.obj
 0001:0003bc00       ?GetVersion@CSerialPort@itas109@@QAE?AV?$basic_string@DU?$char_traits@D@std@@V?$allocator@D@2@@std@@XZ 0043cc00 f   SerialPort.obj
 0001:0003bca0       ??0CSerialPortInfo@itas109@@QAE@XZ 0043cca0 f   SerialPort.obj
 0001:0003bcd0       ??1CSerialPortInfo@itas109@@QAE@XZ 0043ccd0 f   SerialPort.obj
 0001:0003bd00       ?availablePorts@CSerialPortInfo@itas109@@SA?AV?$list@V?$basic_string@DU?$char_traits@D@std@@V?$allocator@D@2@@std@@V?$allocator@V?$basic_string@DU?$char_traits@D@std@@V?$allocator@D@2@@std@@@2@@std@@XZ 0043cd00 f   SerialPort.obj
 0001:0003bdd0       ??0?$basic_string@DU?$char_traits@D@std@@V?$allocator@D@2@@std@@QAE@ABV?$allocator@D@1@@Z 0043cdd0 f i SerialPort.obj
 0001:0003be20       ??0?$basic_string@DU?$char_traits@D@std@@V?$allocator@D@2@@std@@QAE@ABV01@@Z 0043ce20 f i SerialPort.obj
 0001:0003be80       ??0?$basic_string@DU?$char_traits@D@std@@V?$allocator@D@2@@std@@QAE@PBDABV?$allocator@D@1@@Z 0043ce80 f i SerialPort.obj
 0001:0003bee0       ??1?$basic_string@DU?$char_traits@D@std@@V?$allocator@D@2@@std@@QAE@XZ 0043cee0 f i SerialPort.obj
 0001:0003bf20       ??4?$basic_string@DU?$char_traits@D@std@@V?$allocator@D@2@@std@@QAEAAV01@ABV01@@Z 0043cf20 f i SerialPort.obj
 0001:0003bf60       ?c_str@?$basic_string@DU?$char_traits@D@std@@V?$allocator@D@2@@std@@QBEPBDXZ 0043cf60 f i SerialPort.obj
 0001:0003bfb0       ??0?$list@UserialPortBuffer@@V?$allocator@UserialPortBuffer@@@std@@@std@@QAE@ABV?$allocator@UserialPortBuffer@@@1@@Z 0043cfb0 f i SerialPort.obj
 0001:0003c010       ??1?$list@UserialPortBuffer@@V?$allocator@UserialPortBuffer@@@std@@@std@@QAE@XZ 0043d010 f i SerialPort.obj
 0001:0003c090       ?begin@?$list@UserialPortBuffer@@V?$allocator@UserialPortBuffer@@@std@@@std@@QAE?AViterator@12@XZ 0043d090 f i SerialPort.obj
 0001:0003c0f0       ?end@?$list@UserialPortBuffer@@V?$allocator@UserialPortBuffer@@@std@@@std@@QAE?AViterator@12@XZ 0043d0f0 f i SerialPort.obj
 0001:0003c140       ?size@?$list@UserialPortBuffer@@V?$allocator@UserialPortBuffer@@@std@@@std@@QBEIXZ 0043d140 f i SerialPort.obj
 0001:0003c170       ?push_back@?$list@UserialPortBuffer@@V?$allocator@UserialPortBuffer@@@std@@@std@@QAEXABUserialPortBuffer@@@Z 0043d170 f i SerialPort.obj
 0001:0003c1c0       ?erase@?$list@UserialPortBuffer@@V?$allocator@UserialPortBuffer@@@std@@@std@@QAE?AViterator@12@V312@@Z 0043d1c0 f i SerialPort.obj
 0001:0003c2a0       ??0iterator@?$list@UserialPortBuffer@@V?$allocator@UserialPortBuffer@@@std@@@std@@QAE@XZ 0043d2a0 f i SerialPort.obj
 0001:0003c2e0       ??Diterator@?$list@UserialPortBuffer@@V?$allocator@UserialPortBuffer@@@std@@@std@@QBEAAUserialPortBuffer@@XZ 0043d2e0 f i SerialPort.obj
 0001:0003c320       ??Eiterator@?$list@UserialPortBuffer@@V?$allocator@UserialPortBuffer@@@std@@@std@@QAE?AV012@H@Z 0043d320 f i SerialPort.obj
 0001:0003c370       ??9iterator@?$list@UserialPortBuffer@@V?$allocator@UserialPortBuffer@@@std@@@std@@QBE_NABV012@@Z 0043d370 f i SerialPort.obj
 0001:0003c3c0       ??0?$list@V?$basic_string@DU?$char_traits@D@std@@V?$allocator@D@2@@std@@V?$allocator@V?$basic_string@DU?$char_traits@D@std@@V?$allocator@D@2@@std@@@2@@std@@QAE@ABV?$allocator@V?$basic_string@DU?$char_traits@D@std@@V?$allocator@D@2@@std@@@1@@Z 0043d3c0 f i SerialPort.obj
 0001:0003c420       ??0?$list@V?$basic_string@DU?$char_traits@D@std@@V?$allocator@D@2@@std@@V?$allocator@V?$basic_string@DU?$char_traits@D@std@@V?$allocator@D@2@@std@@@2@@std@@QAE@ABV01@@Z 0043d420 f i SerialPort.obj
 0001:0003c4b0       ??1?$list@V?$basic_string@DU?$char_traits@D@std@@V?$allocator@D@2@@std@@V?$allocator@V?$basic_string@DU?$char_traits@D@std@@V?$allocator@D@2@@std@@@2@@std@@QAE@XZ 0043d4b0 f i SerialPort.obj
 0001:0003c530       ?empty@?$list@V?$basic_string@DU?$char_traits@D@std@@V?$allocator@D@2@@std@@V?$allocator@V?$basic_string@DU?$char_traits@D@std@@V?$allocator@D@2@@std@@@2@@std@@QBE_NXZ 0043d530 f i SerialPort.obj
 0001:0003c570       ?push_back@?$list@V?$basic_string@DU?$char_traits@D@std@@V?$allocator@D@2@@std@@V?$allocator@V?$basic_string@DU?$char_traits@D@std@@V?$allocator@D@2@@std@@@2@@std@@QAEXABV?$basic_string@DU?$char_traits@D@std@@V?$allocator@D@2@@2@@Z 0043d570 f i SerialPort.obj
 0001:0003c5c0       ?clear@?$list@V?$basic_string@DU?$char_traits@D@std@@V?$allocator@D@2@@std@@V?$allocator@V?$basic_string@DU?$char_traits@D@std@@V?$allocator@D@2@@std@@@2@@std@@QAEXXZ 0043d5c0 f i SerialPort.obj
 0001:0003c620       ?assign@?$basic_string@DU?$char_traits@D@std@@V?$allocator@D@2@@std@@QAEAAV12@ABV12@@Z 0043d620 f i SerialPort.obj
 0001:0003c670       ?assign@?$basic_string@DU?$char_traits@D@std@@V?$allocator@D@2@@std@@QAEAAV12@ABV12@II@Z 0043d670 f i SerialPort.obj
 0001:0003c7f0       ?copy@?$char_traits@D@std@@SAPADPADPBDI@Z 0043d7f0 f i SerialPort.obj
 0001:0003c830       ?size@?$basic_string@DU?$char_traits@D@std@@V?$allocator@D@2@@std@@QBEIXZ 0043d830 f i SerialPort.obj
 0001:0003c860       ?assign@?$basic_string@DU?$char_traits@D@std@@V?$allocator@D@2@@std@@QAEAAV12@PBD@Z 0043d860 f i SerialPort.obj
 0001:0003c8b0       ?length@?$char_traits@D@std@@SAIPBD@Z 0043d8b0 f i SerialPort.obj
 0001:0003c8f0       ?_Nullstr@?$basic_string@DU?$char_traits@D@std@@V?$allocator@D@2@@std@@CAPBDXZ 0043d8f0 f i SerialPort.obj
 0001:0003c920       ?_Tidy@?$basic_string@DU?$char_traits@D@std@@V?$allocator@D@2@@std@@AAEX_N@Z 0043d920 f i SerialPort.obj
 0001:0003ca00       ?insert@?$list@UserialPortBuffer@@V?$allocator@UserialPortBuffer@@@std@@@std@@QAE?AViterator@12@V312@ABUserialPortBuffer@@@Z 0043da00 f i SerialPort.obj
 0001:0003cae0       ?erase@?$list@UserialPortBuffer@@V?$allocator@UserialPortBuffer@@@std@@@std@@QAE?AViterator@12@V312@0@Z 0043dae0 f i SerialPort.obj
 0001:0003cb50       ?_Buynode@?$list@UserialPortBuffer@@V?$allocator@UserialPortBuffer@@@std@@@std@@IAEPAU_Node@12@PAU312@0@Z 0043db50 f i SerialPort.obj
 0001:0003cbe0       ?_Freenode@?$list@UserialPortBuffer@@V?$allocator@UserialPortBuffer@@@std@@@std@@IAEXPAU_Node@12@@Z 0043dbe0 f i SerialPort.obj
 0001:0003cc20       ?_Next@_Acc@?$list@UserialPortBuffer@@V?$allocator@UserialPortBuffer@@@std@@@std@@SAAAPAU_Node@23@PAU423@@Z 0043dc20 f i SerialPort.obj
 0001:0003cc50       ?_Prev@_Acc@?$list@UserialPortBuffer@@V?$allocator@UserialPortBuffer@@@std@@@std@@SAAAPAU_Node@23@PAU423@@Z 0043dc50 f i SerialPort.obj
 0001:0003cc80       ?_Value@_Acc@?$list@UserialPortBuffer@@V?$allocator@UserialPortBuffer@@@std@@@std@@SAAAUserialPortBuffer@@PAU_Node@23@@Z 0043dc80 f i SerialPort.obj
 0001:0003ccb0       ?destroy@?$allocator@UserialPortBuffer@@@std@@QAEXPAUserialPortBuffer@@@Z 0043dcb0 f i SerialPort.obj
 0001:0003ccf0       ??0const_iterator@?$list@UserialPortBuffer@@V?$allocator@UserialPortBuffer@@@std@@@std@@QAE@XZ 0043dcf0 f i SerialPort.obj
 0001:0003cd20       ?_Mynode@const_iterator@?$list@UserialPortBuffer@@V?$allocator@UserialPortBuffer@@@std@@@std@@QBEPAU_Node@23@XZ 0043dd20 f i SerialPort.obj
 0001:0003cd50       ??0iterator@?$list@UserialPortBuffer@@V?$allocator@UserialPortBuffer@@@std@@@std@@QAE@PAU_Node@12@@Z 0043dd50 f i SerialPort.obj
 0001:0003cd90       ??Eiterator@?$list@UserialPortBuffer@@V?$allocator@UserialPortBuffer@@@std@@@std@@QAEAAV012@XZ 0043dd90 f i SerialPort.obj
 0001:0003cde0       ??8iterator@?$list@UserialPortBuffer@@V?$allocator@UserialPortBuffer@@@std@@@std@@QBE_NABV012@@Z 0043dde0 f i SerialPort.obj
 0001:0003ce20       ?begin@?$list@V?$basic_string@DU?$char_traits@D@std@@V?$allocator@D@2@@std@@V?$allocator@V?$basic_string@DU?$char_traits@D@std@@V?$allocator@D@2@@std@@@2@@std@@QAE?AViterator@12@XZ 0043de20 f i SerialPort.obj
 0001:0003ce80       ?begin@?$list@V?$basic_string@DU?$char_traits@D@std@@V?$allocator@D@2@@std@@V?$allocator@V?$basic_string@DU?$char_traits@D@std@@V?$allocator@D@2@@std@@@2@@std@@QBE?AVconst_iterator@12@XZ 0043de80 f i SerialPort.obj
 0001:0003cee0       ?end@?$list@V?$basic_string@DU?$char_traits@D@std@@V?$allocator@D@2@@std@@V?$allocator@V?$basic_string@DU?$char_traits@D@std@@V?$allocator@D@2@@std@@@2@@std@@QAE?AViterator@12@XZ 0043dee0 f i SerialPort.obj
 0001:0003cf30       ??0CSerialPort@itas109@@QAE@ABV01@@Z 0043df30 f i SerialPort.obj
 0001:0003d0c0       ??0?$list@UserialPortBuffer@@V?$allocator@UserialPortBuffer@@@std@@@std@@QAE@ABV01@@Z 0043e0c0 f i SerialPort.obj
 0001:0003d150       ?begin@?$list@UserialPortBuffer@@V?$allocator@UserialPortBuffer@@@std@@@std@@QBE?AVconst_iterator@12@XZ 0043e150 f i SerialPort.obj
 0001:0003d1b0       ?end@?$list@UserialPortBuffer@@V?$allocator@UserialPortBuffer@@@std@@@std@@QBE?AVconst_iterator@12@XZ 0043e1b0 f i SerialPort.obj
 0001:0003d200       ?insert@?$list@UserialPortBuffer@@V?$allocator@UserialPortBuffer@@@std@@@std@@QAEXViterator@12@Vconst_iterator@12@1@Z 0043e200 f i SerialPort.obj
 0001:0003d270       ??Dconst_iterator@?$list@UserialPortBuffer@@V?$allocator@UserialPortBuffer@@@std@@@std@@QBEABUserialPortBuffer@@XZ 0043e270 f i SerialPort.obj
 0001:0003d2b0       ??Econst_iterator@?$list@UserialPortBuffer@@V?$allocator@UserialPortBuffer@@@std@@@std@@QAEAAV012@XZ 0043e2b0 f i SerialPort.obj
 0001:0003d300       ??9const_iterator@?$list@UserialPortBuffer@@V?$allocator@UserialPortBuffer@@@std@@@std@@QBE_NABV012@@Z 0043e300 f i SerialPort.obj
 0001:0003d350       ?end@?$list@V?$basic_string@DU?$char_traits@D@std@@V?$allocator@D@2@@std@@V?$allocator@V?$basic_string@DU?$char_traits@D@std@@V?$allocator@D@2@@std@@@2@@std@@QBE?AVconst_iterator@12@XZ 0043e350 f i SerialPort.obj
 0001:0003d3a0       ?size@?$list@V?$basic_string@DU?$char_traits@D@std@@V?$allocator@D@2@@std@@V?$allocator@V?$basic_string@DU?$char_traits@D@std@@V?$allocator@D@2@@std@@@2@@std@@QBEIXZ 0043e3a0 f i SerialPort.obj
 0001:0003d3d0       ?insert@?$list@V?$basic_string@DU?$char_traits@D@std@@V?$allocator@D@2@@std@@V?$allocator@V?$basic_string@DU?$char_traits@D@std@@V?$allocator@D@2@@std@@@2@@std@@QAE?AViterator@12@V312@ABV?$basic_string@DU?$char_traits@D@std@@V?$allocator@D@2@@2@@Z 0043e3d0 f i SerialPort.obj
 0001:0003d4b0       ??4CSerialPort@itas109@@QAEAAV01@ABV01@@Z 0043e4b0 f i SerialPort.obj
 0001:0003d650       ??4?$list@UserialPortBuffer@@V?$allocator@UserialPortBuffer@@@std@@@std@@QAEAAV01@ABV01@@Z 0043e650 f i SerialPort.obj
 0001:0003d760       ?insert@?$list@V?$basic_string@DU?$char_traits@D@std@@V?$allocator@D@2@@std@@V?$allocator@V?$basic_string@DU?$char_traits@D@std@@V?$allocator@D@2@@std@@@2@@std@@QAEXViterator@12@Vconst_iterator@12@1@Z 0043e760 f i SerialPort.obj
 0001:0003d7d0       ?erase@?$list@V?$basic_string@DU?$char_traits@D@std@@V?$allocator@D@2@@std@@V?$allocator@V?$basic_string@DU?$char_traits@D@std@@V?$allocator@D@2@@std@@@2@@std@@QAE?AViterator@12@V312@0@Z 0043e7d0 f i SerialPort.obj
 0001:0003d840       ?_Buynode@?$list@V?$basic_string@DU?$char_traits@D@std@@V?$allocator@D@2@@std@@V?$allocator@V?$basic_string@DU?$char_traits@D@std@@V?$allocator@D@2@@std@@@2@@std@@IAEPAU_Node@12@PAU312@0@Z 0043e840 f i SerialPort.obj
 0001:0003d8d0       ?_Freenode@?$list@V?$basic_string@DU?$char_traits@D@std@@V?$allocator@D@2@@std@@V?$allocator@V?$basic_string@DU?$char_traits@D@std@@V?$allocator@D@2@@std@@@2@@std@@IAEXPAU_Node@12@@Z 0043e8d0 f i SerialPort.obj
 0001:0003d910       ??_GCSerialPort@itas109@@UAEPAXI@Z 0043e910 f i SerialPort.obj
 0001:0003d970       ?assign@?$basic_string@DU?$char_traits@D@std@@V?$allocator@D@2@@std@@QAEAAV12@PBDI@Z 0043e970 f i SerialPort.obj
 0001:0003d9e0       ??_ECSerialPort@itas109@@UAEPAXI@Z 0043e9e0 f i SerialPort.obj
 0001:0003da80       ?erase@?$basic_string@DU?$char_traits@D@std@@V?$allocator@D@2@@std@@QAEAAV12@II@Z 0043ea80 f i SerialPort.obj
 0001:0003db50       ?move@?$char_traits@D@std@@SAPADPADPBDI@Z 0043eb50 f i SerialPort.obj
 0001:0003db90       ??4CSerialPortInfo@itas109@@QAEAAV01@ABV01@@Z 0043eb90 f i SerialPort.obj
 0001:0003dbd0       ?capacity@?$basic_string@DU?$char_traits@D@std@@V?$allocator@D@2@@std@@QBEIXZ 0043ebd0 f i SerialPort.obj
 0001:0003dc00       ?_Eos@?$basic_string@DU?$char_traits@D@std@@V?$allocator@D@2@@std@@AAEXI@Z 0043ec00 f i SerialPort.obj
 0001:0003dc60       ?assign@?$char_traits@D@std@@SAXAADABD@Z 0043ec60 f i SerialPort.obj
 0001:0003dc90       ?_Grow@?$basic_string@DU?$char_traits@D@std@@V?$allocator@D@2@@std@@AAE_NI_N@Z 0043ec90 f i SerialPort.obj
 0001:0003ddf0       ?_Refcnt@?$basic_string@DU?$char_traits@D@std@@V?$allocator@D@2@@std@@AAEAAEPBD@Z 0043edf0 f i SerialPort.obj
 0001:0003de20       ?deallocate@?$allocator@D@std@@QAEXPAXI@Z 0043ee20 f i SerialPort.obj
 0001:0003de60       ?_Charalloc@?$allocator@UserialPortBuffer@@@std@@QAEPADI@Z 0043ee60 f i SerialPort.obj
 0001:0003dea0       ?deallocate@?$allocator@UserialPortBuffer@@@std@@QAEXPAXI@Z 0043eea0 f i SerialPort.obj
 0001:0003dee0       ?construct@?$allocator@UserialPortBuffer@@@std@@QAEXPAUserialPortBuffer@@ABU3@@Z 0043eee0 f i SerialPort.obj
 0001:0003df20       ??0const_iterator@?$list@UserialPortBuffer@@V?$allocator@UserialPortBuffer@@@std@@@std@@QAE@PAU_Node@12@@Z 0043ef20 f i SerialPort.obj
 0001:0003df60       ??8const_iterator@?$list@UserialPortBuffer@@V?$allocator@UserialPortBuffer@@@std@@@std@@QBE_NABV012@@Z 0043ef60 f i SerialPort.obj
 0001:0003dfa0       ?erase@?$list@V?$basic_string@DU?$char_traits@D@std@@V?$allocator@D@2@@std@@V?$allocator@V?$basic_string@DU?$char_traits@D@std@@V?$allocator@D@2@@std@@@2@@std@@QAE?AViterator@12@V312@@Z 0043efa0 f i SerialPort.obj
 0001:0003e080       ?_Next@_Acc@?$list@V?$basic_string@DU?$char_traits@D@std@@V?$allocator@D@2@@std@@V?$allocator@V?$basic_string@DU?$char_traits@D@std@@V?$allocator@D@2@@std@@@2@@std@@SAAAPAU_Node@23@PAU423@@Z 0043f080 f i SerialPort.obj
 0001:0003e0b0       ?_Prev@_Acc@?$list@V?$basic_string@DU?$char_traits@D@std@@V?$allocator@D@2@@std@@V?$allocator@V?$basic_string@DU?$char_traits@D@std@@V?$allocator@D@2@@std@@@2@@std@@SAAAPAU_Node@23@PAU423@@Z 0043f0b0 f i SerialPort.obj
 0001:0003e0e0       ?_Value@_Acc@?$list@V?$basic_string@DU?$char_traits@D@std@@V?$allocator@D@2@@std@@V?$allocator@V?$basic_string@DU?$char_traits@D@std@@V?$allocator@D@2@@std@@@2@@std@@SAAAV?$basic_string@DU?$char_traits@D@std@@V?$allocator@D@2@@3@PAU_Node@23@@Z 0043f0e0 f i SerialPort.obj
 0001:0003e110       ?_Charalloc@?$allocator@V?$basic_string@DU?$char_traits@D@std@@V?$allocator@D@2@@std@@@std@@QAEPADI@Z 0043f110 f i SerialPort.obj
 0001:0003e150       ?deallocate@?$allocator@V?$basic_string@DU?$char_traits@D@std@@V?$allocator@D@2@@std@@@std@@QAEXPAXI@Z 0043f150 f i SerialPort.obj
 0001:0003e190       ?construct@?$allocator@V?$basic_string@DU?$char_traits@D@std@@V?$allocator@D@2@@std@@@std@@QAEXPAV?$basic_string@DU?$char_traits@D@std@@V?$allocator@D@2@@2@ABV32@@Z 0043f190 f i SerialPort.obj
 0001:0003e1d0       ??0const_iterator@?$list@V?$basic_string@DU?$char_traits@D@std@@V?$allocator@D@2@@std@@V?$allocator@V?$basic_string@DU?$char_traits@D@std@@V?$allocator@D@2@@std@@@2@@std@@QAE@PAU_Node@12@@Z 0043f1d0 f i SerialPort.obj
 0001:0003e210       ??Dconst_iterator@?$list@V?$basic_string@DU?$char_traits@D@std@@V?$allocator@D@2@@std@@V?$allocator@V?$basic_string@DU?$char_traits@D@std@@V?$allocator@D@2@@std@@@2@@std@@QBEABV?$basic_string@DU?$char_traits@D@std@@V?$allocator@D@2@@2@XZ 0043f210 f i SerialPort.obj
 0001:0003e250       ??Econst_iterator@?$list@V?$basic_string@DU?$char_traits@D@std@@V?$allocator@D@2@@std@@V?$allocator@V?$basic_string@DU?$char_traits@D@std@@V?$allocator@D@2@@std@@@2@@std@@QAEAAV012@XZ 0043f250 f i SerialPort.obj
 0001:0003e2a0       ??9const_iterator@?$list@V?$basic_string@DU?$char_traits@D@std@@V?$allocator@D@2@@std@@V?$allocator@V?$basic_string@DU?$char_traits@D@std@@V?$allocator@D@2@@std@@@2@@std@@QBE_NABV012@@Z 0043f2a0 f i SerialPort.obj
 0001:0003e2f0       ?_Mynode@const_iterator@?$list@V?$basic_string@DU?$char_traits@D@std@@V?$allocator@D@2@@std@@V?$allocator@V?$basic_string@DU?$char_traits@D@std@@V?$allocator@D@2@@std@@@2@@std@@QBEPAU_Node@23@XZ 0043f2f0 f i SerialPort.obj
 0001:0003e320       ??0iterator@?$list@V?$basic_string@DU?$char_traits@D@std@@V?$allocator@D@2@@std@@V?$allocator@V?$basic_string@DU?$char_traits@D@std@@V?$allocator@D@2@@std@@@2@@std@@QAE@PAU_Node@12@@Z 0043f320 f i SerialPort.obj
 0001:0003e360       ??Eiterator@?$list@V?$basic_string@DU?$char_traits@D@std@@V?$allocator@D@2@@std@@V?$allocator@V?$basic_string@DU?$char_traits@D@std@@V?$allocator@D@2@@std@@@2@@std@@QAE?AV012@H@Z 0043f360 f i SerialPort.obj
 0001:0003e3b0       ??9iterator@?$list@V?$basic_string@DU?$char_traits@D@std@@V?$allocator@D@2@@std@@V?$allocator@V?$basic_string@DU?$char_traits@D@std@@V?$allocator@D@2@@std@@@2@@std@@QBE_NABV012@@Z 0043f3b0 f i SerialPort.obj
 0001:0003e400       ?max_size@?$basic_string@DU?$char_traits@D@std@@V?$allocator@D@2@@std@@QBEIXZ 0043f400 f i SerialPort.obj
 0001:0003e460       ?_Copy@?$basic_string@DU?$char_traits@D@std@@V?$allocator@D@2@@std@@AAEXI@Z 0043f460 f i SerialPort.obj
 0001:0003e5c0       ?_Split@?$basic_string@DU?$char_traits@D@std@@V?$allocator@D@2@@std@@AAEXXZ 0043f5c0 f i SerialPort.obj
 0001:0003e650       ?destroy@?$allocator@V?$basic_string@DU?$char_traits@D@std@@V?$allocator@D@2@@std@@@std@@QAEXPAV?$basic_string@DU?$char_traits@D@std@@V?$allocator@D@2@@2@@Z 0043f650 f i SerialPort.obj
 0001:0003e690       ??8const_iterator@?$list@V?$basic_string@DU?$char_traits@D@std@@V?$allocator@D@2@@std@@V?$allocator@V?$basic_string@DU?$char_traits@D@std@@V?$allocator@D@2@@std@@@2@@std@@QBE_NABV012@@Z 0043f690 f i SerialPort.obj
 0001:0003e6d0       ??Eiterator@?$list@V?$basic_string@DU?$char_traits@D@std@@V?$allocator@D@2@@std@@V?$allocator@V?$basic_string@DU?$char_traits@D@std@@V?$allocator@D@2@@std@@@2@@std@@QAEAAV012@XZ 0043f6d0 f i SerialPort.obj
 0001:0003e720       ??8iterator@?$list@V?$basic_string@DU?$char_traits@D@std@@V?$allocator@D@2@@std@@V?$allocator@V?$basic_string@DU?$char_traits@D@std@@V?$allocator@D@2@@std@@@2@@std@@QBE_NABV012@@Z 0043f720 f i SerialPort.obj
 0001:0003e760       ?allocate@?$allocator@D@std@@QAEPADIPBX@Z 0043f760 f i SerialPort.obj
 0001:0003e7a0       ?max_size@?$allocator@D@std@@QBEIXZ 0043f7a0 f i SerialPort.obj
 0001:0003e7f0       ??8std@@YA_NABV?$allocator@D@0@0@Z 0043f7f0 f i SerialPort.obj
 0001:0003e820       ?_Destroy@std@@YAXPAUserialPortBuffer@@@Z 0043f820 f i SerialPort.obj
 0001:0003e840       ?_Allocate@std@@YAPADHPAD@Z 0043f840 f i SerialPort.obj
 0001:0003e890       ?_Construct@std@@YAXPAUserialPortBuffer@@ABU2@@Z 0043f890 f i SerialPort.obj
 0001:0003e8f0       ??2@YAPAXIPAX@Z            0043f8f0 f i SerialPort.obj
 0001:0003e920       ?_Construct@std@@YAXPAV?$basic_string@DU?$char_traits@D@std@@V?$allocator@D@2@@1@ABV21@@Z 0043f920 f i SerialPort.obj
 0001:0003e9b0       ??3@YAXPAX0@Z              0043f9b0 f i SerialPort.obj
 0001:0003e9d0       ?_Destroy@std@@YAXPAV?$basic_string@DU?$char_traits@D@std@@V?$allocator@D@2@@1@@Z 0043f9d0 f i SerialPort.obj
 0001:0003ea10       ??_G?$basic_string@DU?$char_traits@D@std@@V?$allocator@D@2@@std@@QAEPAXI@Z 0043fa10 f i SerialPort.obj
 0001:0003eab0       ?id@?$ctype@G@std@@$D      0043fab0 f i SerialPort.obj
 0001:0003eb30       ?id@?$ctype@G@std@@$E      0043fb30 f i SerialPort.obj
 0001:0003eb50       _InitializeCriticalSection@4 0043fb50 f   kernel32:KERNEL32.dll
 0001:0003eb56       _CreateEventA@16           0043fb56 f   kernel32:KERNEL32.dll
 0001:0003eb5c       _DeleteCriticalSection@4   0043fb5c f   kernel32:KERNEL32.dll
 0001:0003eb62       _CloseHandle@4             0043fb62 f   kernel32:KERNEL32.dll
 0001:0003eb68       _PurgeComm@8               0043fb68 f   kernel32:KERNEL32.dll
 0001:0003eb6e       _SetCommState@8            0043fb6e f   kernel32:KERNEL32.dll
 0001:0003eb74       _GetCommState@8            0043fb74 f   kernel32:KERNEL32.dll
 0001:0003eb7a       _SetCommMask@8             0043fb7a f   kernel32:KERNEL32.dll
 0001:0003eb80       _SetCommTimeouts@8         0043fb80 f   kernel32:KERNEL32.dll
 0001:0003eb86       _LeaveCriticalSection@4    0043fb86 f   kernel32:KERNEL32.dll
 0001:0003eb8c       _GetLastError@0            0043fb8c f   kernel32:KERNEL32.dll
 0001:0003eb92       _CreateFileA@28            0043fb92 f   kernel32:KERNEL32.dll
 0001:0003eb98       _EnterCriticalSection@4    0043fb98 f   kernel32:KERNEL32.dll
 0001:0003eb9e       _GetCommMask@8             0043fb9e f   kernel32:KERNEL32.dll
 0001:0003eba4       _ExitThread@4              0043fba4 f   kernel32:KERNEL32.dll
 0001:0003ebaa       _WaitForSingleObject@8     0043fbaa f   kernel32:KERNEL32.dll
 0001:0003ebb0       _ClearCommError@12         0043fbb0 f   kernel32:KERNEL32.dll
 0001:0003ebb6       _WaitCommEvent@12          0043fbb6 f   kernel32:KERNEL32.dll
 0001:0003ebbc       _CreateThread@24           0043fbbc f   kernel32:KERNEL32.dll
 0001:0003ebc2       _ResumeThread@4            0043fbc2 f   kernel32:KERNEL32.dll
 0001:0003ebc8       _SuspendThread@4           0043fbc8 f   kernel32:KERNEL32.dll
 0001:0003ebce       _LocalFree@4               0043fbce f   kernel32:KERNEL32.dll
 0001:0003ebd4       _FormatMessageA@28         0043fbd4 f   kernel32:KERNEL32.dll
 0001:0003ebda       _GetOverlappedResult@16    0043fbda f   kernel32:KERNEL32.dll
 0001:0003ebe0       _WriteFile@20              0043fbe0 f   kernel32:KERNEL32.dll
 0001:0003ebe6       _ResetEvent@4              0043fbe6 f   kernel32:KERNEL32.dll
 0001:0003ebec       _ReadFile@20               0043fbec f   kernel32:KERNEL32.dll
 0001:0003ebf2       _Sleep@4                   0043fbf2 f   kernel32:KERNEL32.dll
 0001:0003ebf8       _SetEvent@4                0043fbf8 f   kernel32:KERNEL32.dll
 0001:0003ebfe       _MessageBoxA@16            0043fbfe f   user32:USER32.dll
 0001:0003ec04       _SendMessageA@16           0043fc04 f   user32:USER32.dll
 0001:0003ec0a       _MsgWaitForMultipleObjects@20 0043fc0a f   user32:USER32.dll
 0001:0003ec10       _PostMessageA@16           0043fc10 f   user32:USER32.dll
 0001:0003ec16       _DispatchMessageA@4        0043fc16 f   user32:USER32.dll
 0001:0003ec1c       _TranslateMessage@4        0043fc1c f   user32:USER32.dll
 0001:0003ec22       _PeekMessageA@20           0043fc22 f   user32:USER32.dll
 0001:0003ec28       _RegCloseKey@4             0043fc28 f   advapi32:ADVAPI32.dll
 0001:0003ec2e       _RegEnumValueA@32          0043fc2e f   advapi32:ADVAPI32.dll
 0001:0003ec34       _RegQueryInfoKeyA@48       0043fc34 f   advapi32:ADVAPI32.dll
 0001:0003ec3a       _RegOpenKeyExA@20          0043fc3a f   advapi32:ADVAPI32.dll
 0001:0003ec40       __fpmath                   0043fc40 f   LIBCD:fpinit.obj
 0001:0003ec70       __fpclear                  0043fc70 f   LIBCD:fpinit.obj
 0001:0003ec80       __cfltcvt_init             0043fc80 f   LIBCD:fpinit.obj
 0001:0003ecd0       ___setfflag                0043fcd0 f   LIBCD:fpinit.obj
 0001:0003ecf0       __chkesp                   0043fcf0 f   LIBCD:chkesp.obj
 0001:0003ed30       _printf                    0043fd30 f   LIBCD:printf.obj
 0001:0003edb0       __cinit                    0043fdb0 f   LIBCD:crt0dat.obj
 0001:0003edf0       _exit                      0043fdf0 f   LIBCD:crt0dat.obj
 0001:0003ee10       __exit                     0043fe10 f   LIBCD:crt0dat.obj
 0001:0003ee30       __cexit                    0043fe30 f   LIBCD:crt0dat.obj
 0001:0003ee50       __c_exit                   0043fe50 f   LIBCD:crt0dat.obj
 0001:0003ef80       ?_JumpToContinuation@@YGXPAXPAUEHRegistrationNode@@@Z 0043ff80 f   LIBCD:trnsctrl.obj
 0001:0003efc0       ?_CallMemberFunction0@@YGXPAX0@Z 0043ffc0 f   LIBCD:trnsctrl.obj
 0001:0003efd0       ?_CallMemberFunction1@@YGXPAX00@Z 0043ffd0 f   LIBCD:trnsctrl.obj
 0001:0003efe0       ?_CallMemberFunction2@@YGXPAX00H@Z 0043ffe0 f   LIBCD:trnsctrl.obj
 0001:0003eff0       ?_UnwindNestedFrames@@YGXPAUEHRegistrationNode@@PAUEHExceptionRecord@@@Z 0043fff0 f   LIBCD:trnsctrl.obj
 0001:0003f050       ___CxxFrameHandler         00440050 f   LIBCD:trnsctrl.obj
 0001:0003f090       ___CxxLongjmpUnwind@4      00440090 f   LIBCD:trnsctrl.obj
 0001:0003f0c0       ?_CallCatchBlock2@@YAPAXPAUEHRegistrationNode@@PBU_s_FuncInfo@@PAXHK@Z 004400c0 f   LIBCD:trnsctrl.obj
 0001:0003f170       ?_CallSETranslator@@YAHPAUEHExceptionRecord@@PAUEHRegistrationNode@@PAX2PBU_s_FuncInfo@@H1@Z 00440170 f   LIBCD:trnsctrl.obj
 0001:0003f2d0       ?_GetRangeOfTrysToCheck@@YAPBU_s_TryBlockMapEntry@@PBU_s_FuncInfo@@HHPAI1@Z 004402d0 f   LIBCD:trnsctrl.obj
 0001:0003f360       __alloca_probe             00440360 f   LIBCD:chkstk.obj
 0001:0003f360       __chkstk                   00440360 f   LIBCD:chkstk.obj
 0001:0003f390       __global_unwind2           00440390 f   LIBCD:exsup.obj
 0001:0003f3d2       __local_unwind2            004403d2 f   LIBCD:exsup.obj
 0001:0003f42a       __NLG_Return2              0044042a f   LIBCD:exsup.obj
 0001:0003f43a       __abnormal_termination     0044043a f   LIBCD:exsup.obj
 0001:0003f45d       __NLG_Notify1              0044045d f   LIBCD:exsup.obj
 0001:0003f466       __NLG_Notify               00440466 f   LIBCD:exsup.obj
 0001:0003f479       __NLG_Dispatch             00440479 f   LIBCD:exsup.obj
 0001:0003f480       __onexit                   00440480 f   LIBCD:onexit.obj
 0001:0003f530       _atexit                    00440530 f   LIBCD:onexit.obj
 0001:0003f550       ___onexitinit              00440550 f   LIBCD:onexit.obj
 0001:0003f5a0       _clock                     004405a0 f   LIBCD:clock.obj
 0001:0003f610       ___inittime                00440610 f   LIBCD:clock.obj
 0001:0003f650       __CIsqrt                   00440650 f   LIBCD:sqrt.obj
 0001:0003f664       _sqrt                      00440664 f   LIBCD:sqrt.obj
 0001:0003f710       __CIsin                    00440710 f   LIBCD:sin.obj
 0001:0003f724       _sin                       00440724 f   LIBCD:sin.obj
 0001:0003f7c0       __CIcos                    004407c0 f   LIBCD:cos.obj
 0001:0003f7d4       _cos                       004407d4 f   LIBCD:cos.obj
 0001:0003f870       _atan2                     00440870 f   LIBCD:87ctriga.obj
 0001:0003f87a       __CIatan2                  0044087a f   LIBCD:87ctriga.obj
 0001:0003f884       __ftol                     00440884 f   LIBCD:ftol.obj
 0001:0003f8b0       __CIasin                   004408b0 f   LIBCD:asin.obj
 0001:0003f8c4       _asin                      004408c4 f   LIBCD:asin.obj
 0001:0003f980       __CIacos                   00440980 f   LIBCD:acos.obj
 0001:0003f994       _acos                      00440994 f   LIBCD:acos.obj
 0001:0003fa50       _fabs                      00440a50 f   LIBCD:fabs.obj
 0001:0003fb50       _memcpy                    00440b50 f   LIBCD:memcpy.obj
 0001:0003fe90       ??2@YAPAXI@Z               00440e90 f   LIBCD:new.obj
 0001:0003feb0       ??3@YAXPAX@Z               00440eb0 f   LIBCD:dbgdel.obj
 0001:0003ff40       _memset                    00440f40 f   LIBCD:memset.obj
 0001:0003ffa0       __purecall                 00440fa0 f   LIBCD:purevirt.obj
 0001:0003ffb0       __CItan                    00440fb0 f   LIBCD:tan.obj
 0001:0003ffc4       _tan                       00440fc4 f   LIBCD:tan.obj
 0001:00040070       _fmod                      00441070 f   LIBCD:87fmod.obj
 0001:0004007a       __CIfmod                   0044107a f   LIBCD:87fmod.obj
 0001:000400b0       __Getdays                  004410b0 f   LIBCD:strftime.obj
 0001:000401e0       __Getmonths                004411e0 f   LIBCD:strftime.obj
 0001:00040310       __Gettnames                00441310 f   LIBCD:strftime.obj
 0001:00040680       _strftime                  00441680 f   LIBCD:strftime.obj
 0001:000406a0       __Strftime                 004416a0 f   LIBCD:strftime.obj
 0001:00041570       _localtime                 00442570 f   LIBCD:localtim.obj
 0001:000417d0       _time                      004427d0 f   LIBCD:time.obj
 0001:00041960       _strlen                    00442960 f   LIBCD:strlen.obj
 0001:000419e0       _fclose                    004429e0 f   LIBCD:fclose.obj
 0001:00041ac0       _fseek                     00442ac0 f   LIBCD:fseek.obj
 0001:00041bf0       _fgets                     00442bf0 f   LIBCD:fgets.obj
 0001:00041d20       _ftell                     00442d20 f   LIBCD:ftell.obj
 0001:00041fb0       __fsopen                   00442fb0 f   LIBCD:fopen.obj
 0001:000420a0       _fopen                     004430a0 f   LIBCD:fopen.obj
 0001:000420c0       _strcpy                    004430c0 f   LIBCD:strcat.obj
 0001:000420d0       _strcat                    004430d0 f   LIBCD:strcat.obj
 0001:000421b0       _sscanf                    004431b0 f   LIBCD:sscanf.obj
 0001:00042270       _fread                     00443270 f   LIBCD:fread.obj
 0001:00042440       _fwrite                    00443440 f   LIBCD:fwrite.obj
 0001:00042660       __findfirst                00443660 f   LIBCD:findfile.obj
 0001:000427a0       __findnext                 004437a0 f   LIBCD:findfile.obj
 0001:000428d0       __findclose                004438d0 f   LIBCD:findfile.obj
 0001:00042900       ___timet_from_ft           00443900 f   LIBCD:findfile.obj
 0001:00042990       _strcmp                    00443990 f   LIBCD:strcmp.obj
 0001:00042a20       _sprintf                   00443a20 f   LIBCD:sprintf.obj
 0001:00042b20       _fprintf                   00443b20 f   LIBCD:fprintf.obj
 0001:00042bd0       _fflush                    00443bd0 f   LIBCD:fflush.obj
 0001:00042c30       __flush                    00443c30 f   LIBCD:fflush.obj
 0001:00042cf0       __flushall                 00443cf0 f   LIBCD:fflush.obj
 0001:00042de0       _malloc                    00443de0 f   LIBCD:dbgheap.obj
 0001:00042e10       __malloc_dbg               00443e10 f   LIBCD:dbgheap.obj
 0001:00042e40       __nh_malloc                00443e40 f   LIBCD:dbgheap.obj
 0001:00042e60       __nh_malloc_dbg            00443e60 f   LIBCD:dbgheap.obj
 0001:00042eb0       __heap_alloc               00443eb0 f   LIBCD:dbgheap.obj
 0001:00042ed0       __heap_alloc_dbg           00443ed0 f   LIBCD:dbgheap.obj
 0001:000431f0       _calloc                    004441f0 f   LIBCD:dbgheap.obj
 0001:00043220       __calloc_dbg               00444220 f   LIBCD:dbgheap.obj
 0001:00043280       _realloc                   00444280 f   LIBCD:dbgheap.obj
 0001:000432b0       __realloc_dbg              004442b0 f   LIBCD:dbgheap.obj
 0001:00043800       __expand                   00444800 f   LIBCD:dbgheap.obj
 0001:00043830       __expand_dbg               00444830 f   LIBCD:dbgheap.obj
 0001:00043860       _free                      00444860 f   LIBCD:dbgheap.obj
 0001:00043880       __free_dbg                 00444880 f   LIBCD:dbgheap.obj
 0001:00043c70       __msize                    00444c70 f   LIBCD:dbgheap.obj
 0001:00043c90       __msize_dbg                00444c90 f   LIBCD:dbgheap.obj
 0001:00043de0       __CrtSetBreakAlloc         00444de0 f   LIBCD:dbgheap.obj
 0001:00043e00       __CrtSetDbgBlockType       00444e00 f   LIBCD:dbgheap.obj
 0001:00043e90       __CrtSetAllocHook          00444e90 f   LIBCD:dbgheap.obj
 0001:00043f40       __CrtCheckMemory           00444f40 f   LIBCD:dbgheap.obj
 0001:000442a0       __CrtSetDbgFlag            004452a0 f   LIBCD:dbgheap.obj
 0001:000442d0       __CrtDoForAllClientObjects 004452d0 f   LIBCD:dbgheap.obj
 0001:00044330       __CrtIsValidPointer        00445330 f   LIBCD:dbgheap.obj
 0001:00044380       __CrtIsValidHeapPointer    00445380 f   LIBCD:dbgheap.obj
 0001:000444b0       __CrtIsMemoryBlock         004454b0 f   LIBCD:dbgheap.obj
 0001:00044590       __CrtSetDumpClient         00445590 f   LIBCD:dbgheap.obj
 0001:000445b0       __CrtMemCheckpoint         004455b0 f   LIBCD:dbgheap.obj
 0001:00044710       __CrtMemDifference         00445710 f   LIBCD:dbgheap.obj
 0001:00044840       __CrtMemDumpAllObjectsSince 00445840 f   LIBCD:dbgheap.obj
 0001:00044c10       __CrtDumpMemoryLeaks       00445c10 f   LIBCD:dbgheap.obj
 0001:00044c90       __CrtMemDumpStatistics     00445c90 f   LIBCD:dbgheap.obj
 0001:00044d60       _srand                     00445d60 f   LIBCD:rand.obj
 0001:00044d70       _rand                      00445d70 f   LIBCD:rand.obj
 0001:00044da0       __mbctoupper               00445da0 f   LIBCD:mbtoupr.obj
 0001:00044e80       __assert                   00445e80 f   LIBCD:assert.obj
 0001:00045200       ??_M@YGXPAXIHP6EX0@Z@Z     00446200 f   LIBCD:ehvecdtr.obj
 0001:000452b0       ?__ArrayUnwind@@YGXPAXIHP6EX0@Z@Z 004462b0 f   LIBCD:ehvecdtr.obj
 0001:00045360       _memmove                   00446360 f   LIBCD:memmove.obj
 0001:000456a0       _mainCRTStartup            004466a0 f   LIBCD:crt0.obj
 0001:000457d0       __amsg_exit                004467d0 f   LIBCD:crt0.obj
 0001:00045830       __setdefaultprecision      00446830 f   LIBCD:fp8.obj
 0001:00045850       __ms_p5_test_fdiv          00446850 f   LIBCD:testfdiv.obj
 0001:000458b0       __ms_p5_mp_test_fdiv       004468b0 f   LIBCD:testfdiv.obj
 0001:00045900       __forcdecpt                00446900 f   LIBCD:cvt.obj
 0001:000459b0       __cropzeros                004469b0 f   LIBCD:cvt.obj
 0001:00045a90       __positive                 00446a90 f   LIBCD:cvt.obj
 0001:00045ac0       __fassign                  00446ac0 f   LIBCD:cvt.obj
 0001:00045b10       __cftoe                    00446b10 f   LIBCD:cvt.obj
 0001:00045cd0       __cftof                    00446cd0 f   LIBCD:cvt.obj
 0001:00045e60       __cftog                    00446e60 f   LIBCD:cvt.obj
 0001:00045fd0       __cfltcvt                  00446fd0 f   LIBCD:cvt.obj
 0001:00046060       __CrtDbgBreak              00447060 f   LIBCD:dbgrpt.obj
 0001:00046070       __CrtSetReportMode         00447070 f   LIBCD:dbgrpt.obj
 0001:000460d0       __CrtSetReportFile         004470d0 f   LIBCD:dbgrpt.obj
 0001:00046150       __CrtSetReportHook         00447150 f   LIBCD:dbgrpt.obj
 0001:00046170       __CrtDbgReport             00447170 f   LIBCD:dbgrpt.obj
 0001:00046810       __stbuf                    00447810 f   LIBCD:_sftbuf.obj
 0001:00046970       __ftbuf                    00447970 f   LIBCD:_sftbuf.obj
 0001:00046a30       __output                   00447a30 f   LIBCD:output.obj
 0001:00047960       ___initstdio               00448960 f   LIBCD:_file.obj
 0001:00047a90       ___endstdio                00448a90 f   LIBCD:_file.obj
 0001:00047ab0       ___InternalCxxFrameHandler 00448ab0 f   LIBCD:frame.obj
 0001:00048020       ___FrameUnwindToState      00449020 f   LIBCD:frame.obj
 0001:00048630       ?_DestructExceptionObject@@YAXPAUEHExceptionRecord@@E@Z 00449630 f   LIBCD:frame.obj
 0001:00048710       __CallSettingFrame@12      00449710 f   LIBCD:lowhelpr.obj
 0001:00048737       __NLG_Return               00449737 f   LIBCD:lowhelpr.obj
 0001:00048760       ?terminate@@YAXXZ          00449760 f   LIBCD:hooks.obj
 0001:000487f0       ?unexpected@@YAXXZ         004497f0 f   LIBCD:hooks.obj
 0001:00048810       ?_inconsistency@@YAXXZ     00449810 f   LIBCD:hooks.obj
 0001:000488a0       __aulldiv                  004498a0 f   LIBCD:ulldiv.obj
 0001:00048910       __allshl                   00449910 f   LIBCD:llshl.obj
 0001:00048930       __trandisp1                00449930 f   LIBCD:87disp.obj
 0001:00048997       __trandisp2                00449997 f   LIBCD:87disp.obj
 0001:00048a23       __rttospopde               00449a23 f   LIBCD:87disp.obj
 0001:00048a28       __rttospop                 00449a28 f   LIBCD:87disp.obj
 0001:00048a2a       __rtnospop                 00449a2a f   LIBCD:87disp.obj
 0001:00048a2c       __rttosnpop                00449a2c f   LIBCD:87disp.obj
 0001:00048a2d       __rtnospopde               00449a2d f   LIBCD:87disp.obj
 0001:00048a34       __rtzeropop                00449a34 f   LIBCD:87disp.obj
 0001:00048a36       __rtzeronpop               00449a36 f   LIBCD:87disp.obj
 0001:00048a3b       __rtonepop                 00449a3b f   LIBCD:87disp.obj
 0001:00048a3d       __rtonenpop                00449a3d f   LIBCD:87disp.obj
 0001:00048a42       __tosnan1                  00449a42 f   LIBCD:87disp.obj
 0001:00048a6d       __nosnan2                  00449a6d f   LIBCD:87disp.obj
 0001:00048a6f       __tosnan2                  00449a6f f   LIBCD:87disp.obj
 0001:00048a97       __nan2                     00449a97 f   LIBCD:87disp.obj
 0001:00048ad6       __rtindfpop                00449ad6 f   LIBCD:87disp.obj
 0001:00048ad8       __rtindfnpop               00449ad8 f   LIBCD:87disp.obj
 0001:00048ae9       __rttosnpopde              00449ae9 f   LIBCD:87disp.obj
 0001:00048af3       __rtchsifneg               00449af3 f   LIBCD:87disp.obj
 0001:00048b00       __startTwoArgErrorHandling 00449b00 f   LIBCD:genexcep.obj
 0001:00048b17       __startOneArgErrorHandling 00449b17 f   LIBCD:genexcep.obj
 0001:00048b60       __twoToTOS                 00449b60 f   LIBCD:common.obj
 0001:00048b75       __load_CW                  00449b75 f   LIBCD:common.obj
 0001:00048b8c       __convertTOStoQNaN         00449b8c f   LIBCD:common.obj
 0001:00048ba5       __fload_withFB             00449ba5 f   LIBCD:common.obj
 0001:00048be8       __checkTOS_withFB          00449be8 f   LIBCD:common.obj
 0001:00048bfe       __fast_exit                00449bfe f   LIBCD:common.obj
 0001:00048c0b       __math_exit                00449c0b f   LIBCD:common.obj
 0001:00048c35       __check_overflow_exit      00449c35 f   LIBCD:common.obj
 0001:00048c49       __check_range_exit         00449c49 f   LIBCD:common.obj
 0001:00048d0c       __fFATN2                   00449d0c f   LIBCD:87triga.obj
 0001:00048d5c       __rtpiby2                  00449d5c f   LIBCD:87triga.obj
 0001:00048da0       __cintrindisp2             00449da0 f   LIBCD:87cdisp.obj
 0001:00048dde       __cintrindisp1             00449dde f   LIBCD:87cdisp.obj
 0001:00048e14       __ctrandisp2               00449e14 f   LIBCD:87cdisp.obj
 0001:00048f85       __ctrandisp1               00449f85 f   LIBCD:87cdisp.obj
 0001:00048fb1       __fload                    00449fb1 f   LIBCD:87cdisp.obj
 0001:00048ff0       __handle_qnan1             00449ff0 f   LIBCD:fpexcept.obj
 0001:00049050       __handle_qnan2             0044a050 f   LIBCD:fpexcept.obj
 0001:000490c0       __except1                  0044a0c0 f   LIBCD:fpexcept.obj
 0001:00049180       __except2                  0044a180 f   LIBCD:fpexcept.obj
 0001:00049250       __raise_exc                0044a250 f   LIBCD:fpexcept.obj
 0001:00049720       __handle_exc               0044a720 f   LIBCD:fpexcept.obj
 0001:00049aa0       __umatherr                 0044aaa0 f   LIBCD:fpexcept.obj
 0001:00049b40       __set_errno                0044ab40 f   LIBCD:fpexcept.obj
 0001:00049bc0       __errcode                  0044abc0 f   LIBCD:fpexcept.obj
 0001:00049c40       __set_exp                  0044ac40 f   LIBCD:util.obj
 0001:00049c80       __get_exp                  0044ac80 f   LIBCD:util.obj
 0001:00049cb0       __add_exp                  0044acb0 f   LIBCD:util.obj
 0001:00049cf0       __set_bexp                 0044acf0 f   LIBCD:util.obj
 0001:00049d30       __sptype                   0044ad30 f   LIBCD:util.obj
 0001:00049db0       __decomp                   0044adb0 f   LIBCD:util.obj
 0001:00049ef0       __statfp                   0044aef0 f   LIBCD:fpctrl.obj
 0001:00049f10       __clrfp                    0044af10 f   LIBCD:fpctrl.obj
 0001:00049f30       __ctrlfp                   0044af30 f   LIBCD:fpctrl.obj
 0001:00049f70       __set_statfp               0044af70 f   LIBCD:fpctrl.obj
 0001:00049ff0       _fdiv_main_routine         0044aff0 f   LIBCD:adj_fdiv.obj
 0001:0004a107       __adj_fdiv_r               0044b107 f   LIBCD:adj_fdiv.obj
 0001:0004a5a6       __fdivp_sti_st             0044b5a6 f   LIBCD:adj_fdiv.obj
 0001:0004a5b9       __fdivrp_sti_st            0044b5b9 f   LIBCD:adj_fdiv.obj
 0001:0004a5cc       __adj_fdiv_m32             0044b5cc f   LIBCD:adj_fdiv.obj
 0001:0004a618       __adj_fdiv_m64             0044b618 f   LIBCD:adj_fdiv.obj
 0001:0004a664       __adj_fdiv_m16i            0044b664 f   LIBCD:adj_fdiv.obj
 0001:0004a698       __adj_fdiv_m32i            0044b698 f   LIBCD:adj_fdiv.obj
 0001:0004a6cc       __adj_fdivr_m32            0044b6cc f   LIBCD:adj_fdiv.obj
 0001:0004a718       __adj_fdivr_m64            0044b718 f   LIBCD:adj_fdiv.obj
 0001:0004a764       __adj_fdivr_m16i           0044b764 f   LIBCD:adj_fdiv.obj
 0001:0004a798       __adj_fdivr_m32i           0044b798 f   LIBCD:adj_fdiv.obj
 0001:0004a7cc       __safe_fdiv                0044b7cc f   LIBCD:adj_fdiv.obj
 0001:0004a7e1       __safe_fdivr               0044b7e1 f   LIBCD:adj_fdiv.obj
 0001:0004a7f6       __fprem_common             0044b7f6 f   LIBCD:adj_fdiv.obj
 0001:0004a9fc       __adj_fprem                0044b9fc f   LIBCD:adj_fdiv.obj
 0001:0004aaae       __fprem1_common            0044baae f   LIBCD:adj_fdiv.obj
 0001:0004acb4       __adj_fprem1               0044bcb4 f   LIBCD:adj_fdiv.obj
 0001:0004ad69       __safe_fprem               0044bd69 f   LIBCD:adj_fdiv.obj
 0001:0004ad6f       __safe_fprem1              0044bd6f f   LIBCD:adj_fdiv.obj
 0001:0004ad75       __adj_fpatan               0044bd75 f   LIBCD:adj_fdiv.obj
 0001:0004ad78       __adj_fptan                0044bd78 f   LIBCD:adj_fdiv.obj
 0001:0004ad80       ___tzset                   0044bd80 f   LIBCD:tzset.obj
 0001:0004adb0       __tzset                    0044bdb0 f   LIBCD:tzset.obj
 0001:0004b130       __isindst                  0044c130 f   LIBCD:tzset.obj
 0001:0004b630       __strcmpi                  0044c630 f   LIBCD:stricmp.obj
 0001:0004b630       __stricmp                  0044c630 f   LIBCD:stricmp.obj
 0001:0004b6c0       _gmtime                    0044c6c0 f   LIBCD:gmtime.obj
 0001:0004b890       ___loctotime_t             0044c890 f   LIBCD:dtoxtime.obj
 0001:0004b980       __close                    0044c980 f   LIBCD:close.obj
 0001:0004ba70       __freebuf                  0044ca70 f   LIBCD:_freebuf.obj
 0001:0004bb10       __lseek                    0044cb10 f   LIBCD:lseek.obj
 0001:0004bc00       __filbuf                   0044cc00 f   LIBCD:_filbuf.obj
 0001:0004bde0       __ioinit                   0044cde0 f   LIBCD:ioinit.obj
 0001:0004c0f0       __ioterm                   0044d0f0 f   LIBCD:ioinit.obj
 0001:0004c150       __openfile                 0044d150 f   LIBCD:_open.obj
 0001:0004c4e0       __getstream                0044d4e0 f   LIBCD:stream.obj
 0001:0004c5d0       __input                    0044d5d0 f   LIBCD:input.obj
 0001:0004dad0       __read                     0044ead0 f   LIBCD:read.obj
 0001:0004df30       __flsbuf                   0044ef30 f   LIBCD:_flsbuf.obj
 0001:0004e1b0       __write                    0044f1b0 f   LIBCD:write.obj
 0001:0004e460       __commit                   0044f460 f   LIBCD:commit.obj
 0001:0004e510       ?_set_new_handler@@YAP6AHI@ZP6AHI@Z@Z 0044f510 f   LIBCD:handler.obj
 0001:0004e530       ?_query_new_handler@@YAP6AHI@ZXZ 0044f530 f   LIBCD:handler.obj
 0001:0004e540       __callnewh                 0044f540 f   LIBCD:handler.obj
 0001:0004e570       __malloc_base              0044f570 f   LIBCD:malloc.obj
 0001:0004e590       __nh_malloc_base           0044f590 f   LIBCD:malloc.obj
 0001:0004e5f0       __heap_alloc_base          0044f5f0 f   LIBCD:malloc.obj
 0001:0004e6c0       __CrtDefaultAllocHook      0044f6c0 f   LIBCD:dbghook.obj
 0001:0004e6d0       __expand_base              0044f6d0 f   LIBCD:expand.obj
 0001:0004e850       __realloc_base             0044f850 f   LIBCD:realloc.obj
 0001:0004ec70       __free_base                0044fc70 f   LIBCD:free.obj
 0001:0004ed40       __heapchk                  0044fd40 f   LIBCD:heapchk.obj
 0001:0004edd0       __heapset                  0044fdd0 f   LIBCD:heapchk.obj
 0001:0004ede0       __get_sbh_threshold        0044fde0 f   LIBCD:sbheap.obj
 0001:0004ee10       __set_sbh_threshold        0044fe10 f   LIBCD:sbheap.obj
 0001:0004ef20       ___sbh_heap_init           0044ff20 f   LIBCD:sbheap.obj
 0001:0004ef90       ___sbh_find_block          0044ff90 f   LIBCD:sbheap.obj
 0001:0004eff0       ___sbh_verify_block        0044fff0 f   LIBCD:sbheap.obj
 0001:0004f050       ___sbh_free_block          00450050 f   LIBCD:sbheap.obj
 0001:0004f630       ___sbh_alloc_block         00450630 f   LIBCD:sbheap.obj
 0001:0004fb70       ___sbh_alloc_new_region    00450b70 f   LIBCD:sbheap.obj
 0001:0004fc80       ___sbh_alloc_new_group     00450c80 f   LIBCD:sbheap.obj
 0001:0004fe70       ___sbh_resize_block        00450e70 f   LIBCD:sbheap.obj
 0001:00050460       ___sbh_heapmin             00451460 f   LIBCD:sbheap.obj
 0001:00050590       ___sbh_heap_check          00451590 f   LIBCD:sbheap.obj
 0001:00050bb0       __get_old_sbh_threshold    00451bb0 f   LIBCD:sbheap.obj
 0001:00050bc0       __set_old_sbh_threshold    00451bc0 f   LIBCD:sbheap.obj
 0001:00050bf0       ___old_sbh_new_region      00451bf0 f   LIBCD:sbheap.obj
 0001:00050dd0       ___old_sbh_release_region  00451dd0 f   LIBCD:sbheap.obj
 0001:00050e50       ___old_sbh_decommit_pages  00451e50 f   LIBCD:sbheap.obj
 0001:00050fb0       ___old_sbh_find_block      00451fb0 f   LIBCD:sbheap.obj
 0001:00051040       ___old_sbh_free_block      00452040 f   LIBCD:sbheap.obj
 0001:000510b0       ___old_sbh_alloc_block     004520b0 f   LIBCD:sbheap.obj
 0001:00051470       ___old_sbh_alloc_block_from_page 00452470 f   LIBCD:sbheap.obj
 0001:00051720       ___old_sbh_resize_block    00452720 f   LIBCD:sbheap.obj
 0001:00051890       ___old_sbh_heap_check      00452890 f   LIBCD:sbheap.obj
 0001:00051ad0       __GetLinkerVersion         00452ad0 f   LIBCD:heapinit.obj
 0001:00051b30       ___heap_select             00452b30 f   LIBCD:heapinit.obj
 0001:00051d60       __heap_init                00452d60 f   LIBCD:heapinit.obj
 0001:00051df0       __heap_term                00452df0 f   LIBCD:heapinit.obj
 0001:00051ee0       __isctype                  00452ee0 f   LIBCD:isctype.obj
 0001:00051fa0       __setmbcp                  00452fa0 f   LIBCD:mbctype.obj
 0001:00052710       __getmbcp                  00453710 f   LIBCD:mbctype.obj
 0001:00052730       ___initmbctable            00453730 f   LIBCD:mbctype.obj
 0001:00052760       ___crtLCMapStringA         00453760 f   LIBCD:a_map.obj
 0001:00052ac0       _abort                     00453ac0 f   LIBCD:abort.obj
 0001:00052ae0       _signal                    00453ae0 f   LIBCD:winsig.obj
 0001:00052cf0       _raise                     00453cf0 f   LIBCD:winsig.obj
 0001:00052f10       ___crtMessageBoxA          00453f10 f   LIBCD:crtmbox.obj
 0001:00052fd0       __itoa                     00453fd0 f   LIBCD:xtoa.obj
 0001:000530f0       __ltoa                     004540f0 f   LIBCD:xtoa.obj
 0001:00053130       __ultoa                    00454130 f   LIBCD:xtoa.obj
 0001:00053150       __i64toa                   00454150 f   LIBCD:xtoa.obj
 0001:000532a0       __ui64toa                  004542a0 f   LIBCD:xtoa.obj
 0001:000532c0       _strncat                   004542c0 f   LIBCD:strncat.obj
 0001:000533f0       _strncpy                   004543f0 f   LIBCD:strncpy.obj
 0001:000534f0       _setvbuf                   004544f0 f   LIBCD:setvbuf.obj
 0001:00053650       __except_handler3          00454650 f   LIBCD:exsup3.obj
 0001:0005370d       __seh_longjmp_unwind@4     0045470d f   LIBCD:exsup3.obj
 0001:00053730       __XcptFilter               00454730 f   LIBCD:winxfltr.obj
 0001:00053940       __setenvp                  00454940 f   LIBCD:stdenvp.obj
 0001:00053a90       __setargv                  00454a90 f   LIBCD:stdargv.obj
 0001:00053fa0       ___crtGetEnvironmentStringsA 00454fa0 f   LIBCD:a_env.obj
 0001:000541c0       __FF_MSGBANNER             004551c0 f   LIBCD:crt0msg.obj
 0001:00054210       __NMSG_WRITE               00455210 f   LIBCD:crt0msg.obj
 0001:000543d0       __GET_RTERRMSG             004553d0 f   LIBCD:crt0msg.obj
 0001:00054420       __statusfp                 00455420 f   LIBCD:ieee87.obj
 0001:00054440       __clearfp                  00455440 f   LIBCD:ieee87.obj
 0001:00054460       __control87                00455460 f   LIBCD:ieee87.obj
 0001:000544b0       __controlfp                004554b0 f   LIBCD:ieee87.obj
 0001:000544d0       __fpreset                  004554d0 f   LIBCD:ieee87.obj
 0001:000548c0       __tolower                  004558c0 f   LIBCD:tolower.obj
 0001:000548d0       _tolower                   004558d0 f   LIBCD:tolower.obj
 0001:00054a00       __ZeroTail                 00455a00 f   LIBCD:intrncvt.obj
 0001:00054a90       __IncMan                   00455a90 f   LIBCD:intrncvt.obj
 0001:00054b40       __RoundMan                 00455b40 f   LIBCD:intrncvt.obj
 0001:00054c20       __CopyMan                  00455c20 f   LIBCD:intrncvt.obj
 0001:00054c70       __FillZeroMan              00455c70 f   LIBCD:intrncvt.obj
 0001:00054ca0       __IsZeroMan                00455ca0 f   LIBCD:intrncvt.obj
 0001:00054ce0       __ShrMan                   00455ce0 f   LIBCD:intrncvt.obj
 0001:00054dd0       __ld12cvt                  00455dd0 f   LIBCD:intrncvt.obj
 0001:00055020       __ld12tod                  00456020 f   LIBCD:intrncvt.obj
 0001:00055040       __ld12tof                  00456040 f   LIBCD:intrncvt.obj
 0001:00055060       __ld12told                 00456060 f   LIBCD:intrncvt.obj
 0001:00055120       __atodbl                   00456120 f   LIBCD:intrncvt.obj
 0001:00055160       __atoldbl                  00456160 f   LIBCD:intrncvt.obj
 0001:000551a0       __atoflt                   004561a0 f   LIBCD:intrncvt.obj
 0001:000551e0       __fptostr                  004561e0 f   LIBCD:_fptostr.obj
 0001:000552e0       __fltout                   004562e0 f   LIBCD:cfout.obj
 0001:00055360       ___dtold                   00456360 f   LIBCD:cfout.obj
 0001:000554d0       __fptrap                   004564d0 f   LIBCD:crt0fp.obj
 0001:000554e0       __snprintf                 004564e0 f   LIBCD:snprintf.obj
 0001:000555e0       __vsnprintf                004565e0 f   LIBCD:vsnprint.obj
 0001:000556e0       __isatty                   004566e0 f   LIBCD:isatty.obj
 0001:00055710       _wctomb                    00456710 f   LIBCD:wctomb.obj
 0001:000557b0       __aullrem                  004567b0 f   LIBCD:ullrem.obj
 0001:00055830       __fcloseall                00456830 f   LIBCD:closeall.obj
 0001:000558e0       ?__CxxUnhandledExceptionFilter@@YGJPAU_EXCEPTION_POINTERS@@@Z 004568e0 f   LIBCD:unhandld.obj
 0001:00055940       ?__CxxSetUnhandledExceptionFilter@@YAXXZ 00456940 f   LIBCD:unhandld.obj
 0001:00055960       ?__CxxRestoreUnhandledExceptionFilter@@YAXXZ 00456960 f   LIBCD:unhandld.obj
 0001:00055980       ?_ValidateRead@@YAHPBXI@Z  00456980 f   LIBCD:validate.obj
 0001:000559b0       ?_ValidateWrite@@YAHPAXI@Z 004569b0 f   LIBCD:validate.obj
 0001:000559e0       ?_ValidateExecute@@YAHP6GHXZ@Z 004569e0 f   LIBCD:validate.obj
 0001:00055a10       __87except                 00456a10 f   LIBCD:87except.obj
 0001:00055b90       __matherr                  00456b90 f   LIBCD:matherr.obj
 0001:00055ba0       _atol                      00456ba0 f   LIBCD:atox.obj
 0001:00055ca0       _atoi                      00456ca0 f   LIBCD:atox.obj
 0001:00055cc0       __atoi64                   00456cc0 f   LIBCD:atox.obj
 0001:00055df0       _getenv                    00456df0 f   LIBCD:getenv.obj
 0001:00055ec0       __dosmaperr                00456ec0 f   LIBCD:dosmap.obj
 0001:00055f50       __alloc_osfhnd             00456f50 f   LIBCD:osfinfo.obj
 0001:00056080       __set_osfhnd               00457080 f   LIBCD:osfinfo.obj
 0001:00056130       __free_osfhnd              00457130 f   LIBCD:osfinfo.obj
 0001:00056200       __get_osfhandle            00457200 f   LIBCD:osfinfo.obj
 0001:00056260       __open_osfhandle           00457260 f   LIBCD:osfinfo.obj
 0001:00056350       __getbuf                   00457350 f   LIBCD:_getbuf.obj
 0001:00056420       __open                     00457420 f   LIBCD:open.obj
 0001:00056460       __sopen                    00457460 f   LIBCD:open.obj
 0001:00056950       _mbtowc                    00457950 f   LIBCD:mbtowc.obj
 0001:00056ab0       _isalpha                   00457ab0 f   LIBCD:_ctype.obj
 0001:00056b00       _isupper                   00457b00 f   LIBCD:_ctype.obj
 0001:00056b40       _islower                   00457b40 f   LIBCD:_ctype.obj
 0001:00056b80       _isdigit                   00457b80 f   LIBCD:_ctype.obj
 0001:00056bc0       _isxdigit                  00457bc0 f   LIBCD:_ctype.obj
 0001:00056c10       _isspace                   00457c10 f   LIBCD:_ctype.obj
 0001:00056c50       _ispunct                   00457c50 f   LIBCD:_ctype.obj
 0001:00056c90       _isalnum                   00457c90 f   LIBCD:_ctype.obj
 0001:00056ce0       _isprint                   00457ce0 f   LIBCD:_ctype.obj
 0001:00056d30       _isgraph                   00457d30 f   LIBCD:_ctype.obj
 0001:00056d80       _iscntrl                   00457d80 f   LIBCD:_ctype.obj
 0001:00056dc0       ___isascii                 00457dc0 f   LIBCD:_ctype.obj
 0001:00056dd0       ___toascii                 00457dd0 f   LIBCD:_ctype.obj
 0001:00056de0       ___iscsymf                 00457de0 f   LIBCD:_ctype.obj
 0001:00056e40       ___iscsym                  00457e40 f   LIBCD:_ctype.obj
 0001:00056ea0       _ungetc                    00457ea0 f   LIBCD:ungetc.obj
 0001:00056fe0       _strtol                    00457fe0 f   LIBCD:strtol.obj
 0001:00057330       _strtoul                   00458330 f   LIBCD:strtol.obj
 0001:00057360       _strchr                    00458360 f   LIBCD:strchr.obj
 0001:00057366       ___from_strstr_to_strchr   00458366 f   LIBCD:strchr.obj
 0001:00057420       _strstr                    00458420 f   LIBCD:strstr.obj
 0001:000574a0       _strncmp                   004584a0 f   LIBCD:strncmp.obj
 0001:000574e0       ___crtGetStringTypeA       004584e0 f   LIBCD:a_str.obj
 0001:000576a0       ___addl                    004586a0 f   LIBCD:mantold.obj
 0001:000576e0       ___add_12                  004586e0 f   LIBCD:mantold.obj
 0001:00057790       ___shl_12                  00458790 f   LIBCD:mantold.obj
 0001:000577f0       ___shr_12                  004587f0 f   LIBCD:mantold.obj
 0001:00057860       ___mtold12                 00458860 f   LIBCD:mantold.obj
 0001:000579a0       ___strgtold12              004589a0 f   LIBCD:strgtold.obj
 0001:000584d0       ___STRINGTOLD              004594d0 f   LIBCD:strgtold.obj
 0001:00058520       _$I10_OUTPUT               00459520 f   LIBCD:x10fout.obj
 0001:00058a40       __allmul                   00459a40 f   LIBCD:llmul.obj
 0001:00058a80       __mbsnbicoll               00459a80 f   LIBCD:mbsnbico.obj
 0001:00058ad0       ___wtomb_environ           00459ad0 f   LIBCD:wtombenv.obj
 0001:00058b80       __chsize                   00459b80 f   LIBCD:chsize.obj
 0001:00058df0       __toupper                  00459df0 f   LIBCD:toupper.obj
 0001:00058e00       _toupper                   00459e00 f   LIBCD:toupper.obj
 0001:00058f30       ___ld12mul                 00459f30 f   LIBCD:tenpow.obj
 0001:00059370       ___multtenpow12            0045a370 f   LIBCD:tenpow.obj
 0001:00059440       ___crtCompareStringA       0045a440 f   LIBCD:a_cmp.obj
 0001:00059890       ___crtsetenv               0045a890 f   LIBCD:setenv.obj
 0001:00059ce0       __setmode                  0045ace0 f   LIBCD:setmode.obj
 0001:00059de0       __mbschr                   0045ade0 f   LIBCD:mbschr.obj
 0001:00059eb0       ?_Xlen@std@@YAXXZ          0045aeb0 f   libcpd:string.obj
 0001:00059f10       ??0logic_error@std@@QAE@ABV01@@Z 0045af10 f i libcpd:string.obj
 0001:00059f80       ?what@logic_error@std@@UBEPBDXZ 0045af80 f i libcpd:string.obj
 0001:00059fa0       ?_Doraise@logic_error@std@@MBEXXZ 0045afa0 f i libcpd:string.obj
 0001:00059fd0       ??1logic_error@std@@UAE@XZ 0045afd0 f i libcpd:string.obj
 0001:0005a030       ??_Glogic_error@std@@UAEPAXI@Z 0045b030 f i libcpd:string.obj
 0001:0005a030       ??_Elogic_error@std@@UAEPAXI@Z 0045b030 f i libcpd:string.obj
 0001:0005a060       ??0length_error@std@@QAE@ABV?$basic_string@DU?$char_traits@D@std@@V?$allocator@D@2@@1@@Z 0045b060 f i libcpd:string.obj
 0001:0005a090       ??0logic_error@std@@QAE@ABV?$basic_string@DU?$char_traits@D@std@@V?$allocator@D@2@@1@@Z 0045b090 f i libcpd:string.obj
 0001:0005a100       ??1length_error@std@@UAE@XZ 0045b100 f i libcpd:string.obj
 0001:0005a120       ?_Doraise@length_error@std@@MBEXXZ 0045b120 f i libcpd:string.obj
 0001:0005a150       ??_Elength_error@std@@UAEPAXI@Z 0045b150 f i libcpd:string.obj
 0001:0005a150       ??_Glength_error@std@@UAEPAXI@Z 0045b150 f i libcpd:string.obj
 0001:0005a180       ??0length_error@std@@QAE@ABV01@@Z 0045b180 f i libcpd:string.obj
 0001:0005a1b0       ?_Xran@std@@YAXXZ          0045b1b0 f   libcpd:string.obj
 0001:0005a210       ??0out_of_range@std@@QAE@ABV?$basic_string@DU?$char_traits@D@std@@V?$allocator@D@2@@1@@Z 0045b210 f i libcpd:string.obj
 0001:0005a240       ??1out_of_range@std@@UAE@XZ 0045b240 f i libcpd:string.obj
 0001:0005a260       ?_Doraise@out_of_range@std@@MBEXXZ 0045b260 f i libcpd:string.obj
 0001:0005a290       ??_Gout_of_range@std@@UAEPAXI@Z 0045b290 f i libcpd:string.obj
 0001:0005a290       ??_Eout_of_range@std@@UAEPAXI@Z 0045b290 f i libcpd:string.obj
 0001:0005a2c0       ??0out_of_range@std@@QAE@ABV01@@Z 0045b2c0 f i libcpd:string.obj
 0001:0005a330       ?id@?$collate@D@std@@$D    0045b330 f i libcpd:string.obj
 0001:0005a380       ?id@?$collate@D@std@@$E    0045b380 f i libcpd:string.obj
 0001:0005a386       _ExitProcess@4             0045b386 f   kernel32:KERNEL32.dll
 0001:0005a38c       _TerminateProcess@8        0045b38c f   kernel32:KERNEL32.dll
 0001:0005a392       _GetCurrentProcess@0       0045b392 f   kernel32:KERNEL32.dll
 0001:0005a398       _RtlUnwind@16              0045b398 f   kernel32:KERNEL32.dll
 0001:0005a39e       _GetSystemTimeAsFileTime@4 0045b39e f   kernel32:KERNEL32.dll
 0001:0005a3a4       _GetTimeZoneInformation@4  0045b3a4 f   kernel32:KERNEL32.dll
 0001:0005a3aa       _GetSystemTime@4           0045b3aa f   kernel32:KERNEL32.dll
 0001:0005a3b0       _GetLocalTime@4            0045b3b0 f   kernel32:KERNEL32.dll
 0001:0005a3b6       _FindFirstFileA@8          0045b3b6 f   kernel32:KERNEL32.dll
 0001:0005a3bc       _FindNextFileA@8           0045b3bc f   kernel32:KERNEL32.dll
 0001:0005a3c2       _FindClose@4               0045b3c2 f   kernel32:KERNEL32.dll
 0001:0005a3c8       _FileTimeToSystemTime@8    0045b3c8 f   kernel32:KERNEL32.dll
 0001:0005a3ce       _FileTimeToLocalFileTime@8 0045b3ce f   kernel32:KERNEL32.dll
 0001:0005a3d4       _IsBadWritePtr@8           0045b3d4 f   kernel32:KERNEL32.dll
 0001:0005a3da       _IsBadReadPtr@8            0045b3da f   kernel32:KERNEL32.dll
 0001:0005a3e0       _HeapValidate@12           0045b3e0 f   kernel32:KERNEL32.dll
 0001:0005a3e6       _GetModuleFileNameA@12     0045b3e6 f   kernel32:KERNEL32.dll
 0001:0005a3ec       _GetCommandLineA@0         0045b3ec f   kernel32:KERNEL32.dll
 0001:0005a3f2       _GetVersion@0              0045b3f2 f   kernel32:KERNEL32.dll
 0001:0005a3f8       _GetProcAddress@8          0045b3f8 f   kernel32:KERNEL32.dll
 0001:0005a3fe       _GetModuleHandleA@4        0045b3fe f   kernel32:KERNEL32.dll
 0001:0005a404       _DebugBreak@0              0045b404 f   kernel32:KERNEL32.dll
 0001:0005a40a       _GetStdHandle@4            0045b40a f   kernel32:KERNEL32.dll
 0001:0005a410       _InterlockedDecrement@4    0045b410 f   kernel32:KERNEL32.dll
 0001:0005a416       _OutputDebugStringA@4      0045b416 f   kernel32:KERNEL32.dll
 0001:0005a41c       _LoadLibraryA@4            0045b41c f   kernel32:KERNEL32.dll
 0001:0005a422       _InterlockedIncrement@4    0045b422 f   kernel32:KERNEL32.dll
 0001:0005a428       _RaiseException@16         0045b428 f   kernel32:KERNEL32.dll
 0001:0005a42e       _WideCharToMultiByte@32    0045b42e f   kernel32:KERNEL32.dll
 0001:0005a434       _SetFilePointer@16         0045b434 f   kernel32:KERNEL32.dll
 0001:0005a43a       _SetHandleCount@4          0045b43a f   kernel32:KERNEL32.dll
 0001:0005a440       _GetFileType@4             0045b440 f   kernel32:KERNEL32.dll
 0001:0005a446       _GetStartupInfoA@4         0045b446 f   kernel32:KERNEL32.dll
 0001:0005a44c       _FlushFileBuffers@4        0045b44c f   kernel32:KERNEL32.dll
 0001:0005a452       _HeapAlloc@12              0045b452 f   kernel32:KERNEL32.dll
 0001:0005a458       _HeapReAlloc@16            0045b458 f   kernel32:KERNEL32.dll
 0001:0005a45e       _HeapFree@12               0045b45e f   kernel32:KERNEL32.dll
 0001:0005a464       _VirtualFree@12            0045b464 f   kernel32:KERNEL32.dll
 0001:0005a46a       _VirtualAlloc@16           0045b46a f   kernel32:KERNEL32.dll
 0001:0005a470       _GetEnvironmentVariableA@12 0045b470 f   kernel32:KERNEL32.dll
 0001:0005a476       _GetVersionExA@4           0045b476 f   kernel32:KERNEL32.dll
 0001:0005a47c       _HeapDestroy@4             0045b47c f   kernel32:KERNEL32.dll
 0001:0005a482       _HeapCreate@12             0045b482 f   kernel32:KERNEL32.dll
 0001:0005a488       _GetCPInfo@8               0045b488 f   kernel32:KERNEL32.dll
 0001:0005a48e       _GetACP@0                  0045b48e f   kernel32:KERNEL32.dll
 0001:0005a494       _GetOEMCP@0                0045b494 f   kernel32:KERNEL32.dll
 0001:0005a49a       _MultiByteToWideChar@24    0045b49a f   kernel32:KERNEL32.dll
 0001:0005a4a0       _LCMapStringA@24           0045b4a0 f   kernel32:KERNEL32.dll
 0001:0005a4a6       _LCMapStringW@24           0045b4a6 f   kernel32:KERNEL32.dll
 0001:0005a4ac       _SetConsoleCtrlHandler@8   0045b4ac f   kernel32:KERNEL32.dll
 0001:0005a4b2       _UnhandledExceptionFilter@4 0045b4b2 f   kernel32:KERNEL32.dll
 0001:0005a4b8       _FreeEnvironmentStringsA@4 0045b4b8 f   kernel32:KERNEL32.dll
 0001:0005a4be       _FreeEnvironmentStringsW@4 0045b4be f   kernel32:KERNEL32.dll
 0001:0005a4c4       _GetEnvironmentStrings@0   0045b4c4 f   kernel32:KERNEL32.dll
 0001:0005a4ca       _GetEnvironmentStringsW@0  0045b4ca f   kernel32:KERNEL32.dll
 0001:0005a4d0       _SetUnhandledExceptionFilter@4 0045b4d0 f   kernel32:KERNEL32.dll
 0001:0005a4d6       _IsBadCodePtr@4            0045b4d6 f   kernel32:KERNEL32.dll
 0001:0005a4dc       _SetStdHandle@8            0045b4dc f   kernel32:KERNEL32.dll
 0001:0005a4e2       _GetStringTypeA@20         0045b4e2 f   kernel32:KERNEL32.dll
 0001:0005a4e8       _GetStringTypeW@16         0045b4e8 f   kernel32:KERNEL32.dll
 0001:0005a4ee       _SetEndOfFile@4            0045b4ee f   kernel32:KERNEL32.dll
 0001:0005a4f4       _CompareStringA@24         0045b4f4 f   kernel32:KERNEL32.dll
 0001:0005a4fa       _CompareStringW@24         0045b4fa f   kernel32:KERNEL32.dll
 0001:0005a500       _SetEnvironmentVariableA@8 0045b500 f   kernel32:KERNEL32.dll
 0001:0005a510       __access                   0045b510 f   LIBCD:access.obj
 0001:0005a510       _access                    0045b510 f   LIBCD:access.obj
 0001:0005a570       ??0exception@@QAE@XZ       0045b570 f   LIBCD:stdexcpt.obj
 0001:0005a5a0       ??_Eexception@@UAEPAXI@Z   0045b5a0 f i LIBCD:stdexcpt.obj
 0001:0005a5a0       ??_Gexception@@UAEPAXI@Z   0045b5a0 f i LIBCD:stdexcpt.obj
 0001:0005a5d0       ??0exception@@QAE@ABQBD@Z  0045b5d0 f   LIBCD:stdexcpt.obj
 0001:0005a640       ??0exception@@QAE@ABV0@@Z  0045b640 f   LIBCD:stdexcpt.obj
 0001:0005a6d0       ??4exception@@QAEAAV0@ABV0@@Z 0045b6d0 f   LIBCD:stdexcpt.obj
 0001:0005a700       ??1exception@@UAE@XZ       0045b700 f   LIBCD:stdexcpt.obj
 0001:0005a740       ?what@exception@@UBEPBDXZ  0045b740 f   LIBCD:stdexcpt.obj
 0001:0005a770       ??1type_info@@UAE@XZ       0045b770 f   LIBCD:typinfo.obj
 0001:0005a7a0       ??_Gtype_info@@UAEPAXI@Z   0045b7a0 f i LIBCD:typinfo.obj
 0001:0005a7a0       ??_Etype_info@@UAEPAXI@Z   0045b7a0 f i LIBCD:typinfo.obj
 0001:0005a7d0       ??8type_info@@QBEHABV0@@Z  0045b7d0 f   LIBCD:typinfo.obj
 0001:0005a800       ??9type_info@@QBEHABV0@@Z  0045b800 f   LIBCD:typinfo.obj
 0001:0005a830       ?before@type_info@@QBEHABV1@@Z 0045b830 f   LIBCD:typinfo.obj
 0001:0005a860       ?raw_name@type_info@@QBEPBDXZ 0045b860 f   LIBCD:typinfo.obj
 0001:0005a880       ??0type_info@@AAE@ABV0@@Z  0045b880 f   LIBCD:typinfo.obj
 0001:0005a8a0       ??4type_info@@AAEAAV0@ABV0@@Z 0045b8a0 f   LIBCD:typinfo.obj
 0001:0005a8b0       __CxxThrowException@8      0045b8b0 f   LIBCD:throw.obj
 0001:0005a8f2       _GetFileAttributesA@4      0045b8f2 f   kernel32:KERNEL32.dll
 0002:0000001c       ??_7CKFApp@@6B@            0045d01c     KFApp.obj
 0002:0000003c       ??_C@_03HMFC@?$CFd?6?$AA@  0045d03c     Main_SinsGps.obj
 0002:00000040       __real@8@400a8340000000000000 0045d040     Main_SinsGps.obj
 0002:00000048       __real@8@4009fa00000000000000 0045d048     Main_SinsGps.obj
 0002:00000050       __real@8@4008fa00000000000000 0045d050     Main_SinsGps.obj
 0002:00000058       __real@8@4008e100000000000000 0045d058     Main_SinsGps.obj
 0002:00000060       __real@8@40089600000000000000 0045d060     Main_SinsGps.obj
 0002:00000068       __real@8@4007fa00000000000000 0045d068     Main_SinsGps.obj
 0002:00000070       __real@8@3ffbccccccccccccd000 0045d070     Main_SinsGps.obj
 0002:00000078       ??_C@_0P@EPGP@mimuattgps?4bin?$AA@ 0045d078     Main_SinsGps.obj
 0002:00000088       ??_C@_06LOEC@kf?4bin?$AA@  0045d088     Main_SinsGps.obj
 0002:00000090       ??_C@_07HCGD@ins?4bin?$AA@ 0045d090     Main_SinsGps.obj
 0002:00000098       ??_C@_0BP@FKM@D?3?2ygm2020?2PSINS?M?x?U?$LO?2?$LJ?$NP?$LF?$LM?J?$PN?$LO?$NN?2?$AA@ 0045d098     Main_SinsGps.obj
 0002:000000b8       ??_C@_0BK@JGHO@D?3?2psins210207?2VC60?2Data?2?$AA@ 0045d0b8     Main_SinsGps.obj
 0002:000000d8       __real@8@4004f000000000000000 0045d0d8     PSINS.obj
 0002:000000e0       __real@8@40008000000000000000 0045d0e0     PSINS.obj
 0002:000000e8       __real@8@3fff8000000000000000 0045d0e8     PSINS.obj
 0002:000000f0       ??_C@_0CB@IEDO@?6?7PSINS?5elasped?5time?5?$CIms?$CJ?3?5?$CFd?4?6?6@ 0045d0f0     PSINS.obj
 0002:00000118       __real@8@00000000000000000000 0045d118     PSINS.obj
 0002:00000120       __real@8@3ff38888888888888800 0045d120     PSINS.obj
 0002:00000128       __real@8@3ffe8000000000000000 0045d128     PSINS.obj
 0002:00000130       __real@8@3ff9aaaaaaaaaaaaa800 0045d130     PSINS.obj
 0002:00000138       __real@8@3ff6aaaaaaaaaaaaa800 0045d138     PSINS.obj
 0002:00000140       __real@8@3ffc8000000000000000 0045d140     PSINS.obj
 0002:00000148       __real@8@3ff39fb50ed8a0fd7000 0045d148     PSINS.obj
 0002:00000150       __real@8@c000c90fdaa221688800 0045d150     PSINS.obj
 0002:00000158       __real@8@4001c90fdaa221688800 0045d158     PSINS.obj
 0002:00000160       __real@8@4000c90fdaa221688800 0045d160     PSINS.obj
 0002:00000168       __real@8@400fd96bbed250615000 0045d168     PSINS.obj
 0002:00000170       __real@8@4018bebc200000000000 0045d170     PSINS.obj
 0002:00000178       __real@8@4019bebc200000000000 0045d178     PSINS.obj
 0002:00000180       __real@8@3fcaffffffff840d1000 0045d180     PSINS.obj
 0002:00000188       __real@8@400ec350000000000000 0045d188     PSINS.obj
 0002:00000190       __real@8@400fc350000000000000 0045d190     PSINS.obj
 0002:00000198       __real@8@4000c000000000000000 0045d198     PSINS.obj
 0002:000001a0       __real@8@3fbcbce5086492111800 0045d1a0     PSINS.obj
 0002:000001a8       __real@8@3fdddbe6fecebdedd800 0045d1a8     PSINS.obj
 0002:000001b0       __real@8@3feb8637bd05af6c6800 0045d1b0     PSINS.obj
 0002:000001b8       __real@8@bfdddbe6fecebdedd800 0045d1b8     PSINS.obj
 0002:000001c0       __real@8@40018000000000000000 0045d1c0     PSINS.obj
 0002:000001c8       __real@8@c0008000000000000000 0045d1c8     PSINS.obj
 0002:000001d0       __real@8@4000c0000431bde83000 0045d1d0     PSINS.obj
 0002:000001d8       __real@8@4000bffffbce4217d000 0045d1d8     PSINS.obj
 0002:000001e0       __real@8@3fcd901d7cf73ab0b000 0045d1e0     PSINS.obj
 0002:000001e8       __real@8@40028000000000000000 0045d1e8     PSINS.obj
 0002:000001f0       __real@8@c0028000000000000000 0045d1f0     PSINS.obj
 0002:000001f8       __real@8@3fd78cbccc096f508800 0045d1f8     PSINS.obj
 0002:00000200       __real@8@4001ddb3d742c2654800 0045d200     PSINS.obj
 0002:00000208       __real@8@3fffddb3d742c2654800 0045d208     PSINS.obj
 0002:00000210       __real@8@bfff8000000000000000 0045d210     PSINS.obj
 0002:00000218       __real@8@3fffc000000000000000 0045d218     PSINS.obj
 0002:00000220       __real@8@40029000000000000000 0045d220     PSINS.obj
 0002:00000228       __real@8@40058000000000000000 0045d228     PSINS.obj
 0002:00000230       __real@8@40038000000000000000 0045d230     PSINS.obj
 0002:00000238       __real@8@4065abcc7665645ef000 0045d238     PSINS.obj
 0002:00000240       ??_7CPolyfit@@6B@          0045d240     PSINS.obj
 0002:00000244       ??_7CPolyfit3@@6B@         0045d244     PSINS.obj
 0002:00000248       __real@8@3ff8a3d70a3d70a3d800 0045d248     PSINS.obj
 0002:00000250       __real@8@4005c800000000000000 0045d250     PSINS.obj
 0002:00000258       __real@8@4063abcc7665645ef000 0045d258     PSINS.obj
 0002:00000260       __real@8@c00fc350000000000000 0045d260     PSINS.obj
 0002:00000268       __real@8@c063abcc7665645ef000 0045d268     PSINS.obj
 0002:00000270       __real@8@bfcaffffffff840d1000 0045d270     PSINS.obj
 0002:00000278       __real@4@40008000000000000000 0045d278     PSINS.obj
 0002:0000027c       __real@4@00000000000000000000 0045d27c     PSINS.obj
 0002:00000280       ??_7CKalman@@6B@           0045d280     PSINS.obj
 0002:00000290       __real@8@3ffee666666666666800 0045d290     PSINS.obj
 0002:00000298       __real@8@4002a000000000000000 0045d298     PSINS.obj
 0002:000002a0       ??_7CSINSTDKF@@6B@         0045d2a0     PSINS.obj
 0002:000002c0       __real@8@3ffefd70a3d70a3d7000 0045d2c0     PSINS.obj
 0002:000002c8       ??_7CSINSGNSS@@6B@         0045d2c8     PSINS.obj
 0002:000002e4       ??_C@_03KEHM@dKA?$AA@      0045d2e4     PSINS.obj
 0002:000002e8       ??_C@_03FLAO@dKG?$AA@      0045d2e8     PSINS.obj
 0002:000002ec       ??_C@_05LFNG@dKG?$CKz?$AA@ 0045d2ec     PSINS.obj
 0002:000002f4       ??_C@_0L@HBKD@arcsec?$HMppm?$AA@ 0045d2f4     PSINS.obj
 0002:00000300       ??_C@_02NBFB@dt?$AA@       0045d300     PSINS.obj
 0002:00000304       ??_C@_02CHEK@ms?$AA@       0045d304     PSINS.obj
 0002:00000308       ??_C@_03DEJK@Lvr?$AA@      0045d308     PSINS.obj
 0002:0000030c       ??_C@_02OHFL@cm?$AA@       0045d30c     PSINS.obj
 0002:00000310       ??_C@_05HFNK@dKGzz?$AA@    0045d310     PSINS.obj
 0002:00000318       ??_C@_03FABI@ppm?$AA@      0045d318     PSINS.obj
 0002:0000031c       ??_C@_02IHFD@db?$AA@       0045d31c     PSINS.obj
 0002:00000320       ??_C@_02PLJL@ug?$AA@       0045d320     PSINS.obj
 0002:00000324       ??_C@_02JBPJ@eb?$AA@       0045d324     PSINS.obj
 0002:00000328       ??_C@_03DJOD@dph?$AA@      0045d328     PSINS.obj
 0002:0000032c       ??_C@_04MFFA@dPos?$AA@     0045d32c     PSINS.obj
 0002:00000334       ??_C@_01KDFD@m?$AA@        0045d334     PSINS.obj
 0002:00000338       ??_C@_03GEDM@dVn?$AA@      0045d338     PSINS.obj
 0002:0000033c       ??_C@_03ONDM@m?1s?$AA@     0045d33c     PSINS.obj
 0002:00000340       ??_C@_03CFLJ@phi?$AA@      0045d340     PSINS.obj
 0002:00000344       ??_C@_06FKBI@arcmin?$AA@   0045d344     PSINS.obj
 0002:0000034c       ??_7CSysClbt@@6B@          0045d34c     PSINS.obj
 0002:00000368       ??_C@_05BFAI@Ka2?$DN?$FL?$AA@ 0045d368     PSINS.obj
 0002:00000370       ??_C@_0BB@BDFO@?$FN?8?$DL?5?$CFugpg2?6lvy?$DN?$FL?$AA@ 0045d370     PSINS.obj
 0002:00000384       ??_C@_0O@IKDE@?$FN?8?$DL?5?$CFcm?6lvz?$DN?$FL?$AA@ 0045d384     PSINS.obj
 0002:00000394       ??_C@_08BBPO@?$FN?8?$DL?6tGA?$DN?$AA@ 0045d394     PSINS.obj
 0002:000003a0       ??_C@_06IBKE@?$DL?5?$CFms?6?$AA@ 0045d3a0     PSINS.obj
 0002:000003a8       ??_C@_04IJOD@Kg?$DN?$FL?$AA@ 0045d3a8     PSINS.obj
 0002:000003b0       ??_C@_07NMEK@?$FN?$DL?6eb?$DN?$FL?$AA@ 0045d3b0     PSINS.obj
 0002:000003b8       ??_C@_0O@GDKI@?$FN?8?$DL?5?$CFdph?6Ka?$DN?$FL?$AA@ 0045d3b8     PSINS.obj
 0002:000003c8       ??_C@_07PJBI@?$FN?$DL?6db?$DN?$FL?$AA@ 0045d3c8     PSINS.obj
 0002:000003d0       ??_C@_08LLII@?$FN?8?$DL?5?$CFug?6?$AA@ 0045d3d0     PSINS.obj
 0002:000003dc       ??_C@_03GKOI@tGA?$AA@      0045d3dc     PSINS.obj
 0002:000003e0       ??_C@_03GACC@Lvz?$AA@      0045d3e0     PSINS.obj
 0002:000003e4       ??_C@_03JPJL@Lvy?$AA@      0045d3e4     PSINS.obj
 0002:000003e8       ??_C@_05EAFF@dKapn?$AA@    0045d3e8     PSINS.obj
 0002:000003f0       ??_C@_04EPEI@dKa2?$AA@     0045d3f0     PSINS.obj
 0002:000003f8       ??_C@_06IHEA@ug?1g?$FO2?$AA@ 0045d3f8     PSINS.obj
 0002:00000400       ??_C@_0L@MAKE@ppm?$HMarcsec?$AA@ 0045d400     PSINS.obj
 0002:0000040c       ??_7CPOS618@@6B@           0045d40c     PSINS.obj
 0002:00000428       ??_C@_0M@LLCO@kfdebug?4bin?$AA@ 0045d428     PSINS.obj
 0002:00000434       ??_C@_0N@HCDN@insdebug?4bin?$AA@ 0045d434     PSINS.obj
 0002:00000444       ??_C@_0BH@HEBN@?9?9?9?5Load?5data?5?9?9?9?6?5OK?6?$AA@ 0045d444     PSINS.obj
 0002:00000460       __real@8@bffbccccccccccccd000 0045d460     PSINS.obj
 0002:00000468       ??_C@_0BM@HIAH@?9?9?9?5Forward?5processing?5?9?9?9?6?$AA@ 0045d468     PSINS.obj
 0002:00000484       ??_C@_0CG@CMHI@?9?9?9?5Backward?5processing?5?$CG?5Fusion@ 0045d484     PSINS.obj
 0002:000004ac       ??_C@_0BK@EEKG@?9?9?9?5Save?5results?5?9?9?9?6?5OK?6?$AA@ 0045d4ac     PSINS.obj
 0002:000004c8       ??_7CSINSGNSSCNS@@6B@      0045d4c8     PSINS.obj
 0002:000004e4       ??_7CSINSGNSSDR@@6B@       0045d4e4     PSINS.obj
 0002:00000500       __real@8@4001a000000000000000 0045d500     PSINS.obj
 0002:00000508       ??_7CSINSGNSSOD@@6B@       0045d508     PSINS.obj
 0002:00000528       __real@8@4003a000000000000000 0045d528     PSINS.obj
 0002:00000530       ??_7CAutoDrive@@6B@        0045d530     PSINS.obj
 0002:00000550       __real@8@3ffdfa60597abc520800 0045d550     PSINS.obj
 0002:00000558       __real@8@3ff98efa351294e9a000 0045d558     PSINS.obj
 0002:00000560       __real@8@3ff5e4c3881dbb0f6800 0045d560     PSINS.obj
 0002:00000568       __real@8@40029800000000000000 0045d568     PSINS.obj
 0002:00000570       ??_7CSGOClbt@@6B@          0045d570     PSINS.obj
 0002:0000058c       ??_7CVAutoPOS@@6B@         0045d58c     PSINS.obj
 0002:000005b0       __real@8@40008920000000000000 0045d5b0     PSINS.obj
 0002:000005b8       __real@8@4000d080000000000000 0045d5b8     PSINS.obj
 0002:000005c0       __real@8@3fffc955555555555800 0045d5c0     PSINS.obj
 0002:000005c8       __real@8@3fffdc00000000000000 0045d5c8     PSINS.obj
 0002:000005d0       __real@8@3fffa800000000000000 0045d5d0     PSINS.obj
 0002:000005d8       __real@8@3ffe8680000000000000 0045d5d8     PSINS.obj
 0002:000005e0       __real@8@3ffed800000000000000 0045d5e0     PSINS.obj
 0002:000005e8       __real@8@3ffe9d80000000000000 0045d5e8     PSINS.obj
 0002:000005f0       __real@8@3ffdd200000000000000 0045d5f0     PSINS.obj
 0002:000005f8       __real@8@bffebaaaaaaaaaaaa800 0045d5f8     PSINS.obj
 0002:00000600       __real@8@3ffdf000000000000000 0045d600     PSINS.obj
 0002:00000608       __real@8@3ffef000000000000000 0045d608     PSINS.obj
 0002:00000610       __real@8@3ffbc000000000000000 0045d610     PSINS.obj
 0002:00000618       __real@8@3ffe9000000000000000 0045d618     PSINS.obj
 0002:00000620       __real@8@bfffc000000000000000 0045d620     PSINS.obj
 0002:00000628       __real@8@3ff98000000000000000 0045d628     PSINS.obj
 0002:00000630       __real@8@3ffd8000000000000000 0045d630     PSINS.obj
 0002:00000638       __real@8@4006b300000000000000 0045d638     PSINS.obj
 0002:00000640       __real@8@4007ef80000000000000 0045d640     PSINS.obj
 0002:00000648       __real@8@3ff2d00d00d00d00d000 0045d648     PSINS.obj
 0002:00000650       __real@8@4002e000000000000000 0045d650     PSINS.obj
 0002:00000658       __real@8@40039000000000000000 0045d658     PSINS.obj
 0002:00000660       __real@8@3ff88888888888888800 0045d660     PSINS.obj
 0002:00000668       __real@8@3ffcaaaaaaaaaaaaa800 0045d668     PSINS.obj
 0002:00000670       __real@8@400887c0000000000000 0045d670     PSINS.obj
 0002:00000678       __real@8@4009ad20000000000000 0045d678     PSINS.obj
 0002:00000680       __real@8@400ac270000000000000 0045d680     PSINS.obj
 0002:00000688       __real@8@400e9d80000000000000 0045d688     PSINS.obj
 0002:00000690       __real@8@4007a500000000000000 0045d690     PSINS.obj
 0002:00000698       __real@8@40078700000000000000 0045d698     PSINS.obj
 0002:000006a0       __real@8@4004f400000000000000 0045d6a0     PSINS.obj
 0002:000006a8       __real@8@4004e800000000000000 0045d6a8     PSINS.obj
 0002:000006b0       __real@8@4008b400000000000000 0045d6b0     PSINS.obj
 0002:000006b8       __real@8@4003c000000000000000 0045d6b8     PSINS.obj
 0002:000006c0       __real@8@4009a500000000000000 0045d6c0     PSINS.obj
 0002:000006c8       __real@8@4008a580000000000000 0045d6c8     PSINS.obj
 0002:000006d0       __real@8@400b9d80000000000000 0045d6d0     PSINS.obj
 0002:000006d8       __real@8@4003e000000000000000 0045d6d8     PSINS.obj
 0002:000006e0       __real@8@4005f000000000000000 0045d6e0     PSINS.obj
 0002:000006e8       __real@8@4009c4e0000000000000 0045d6e8     PSINS.obj
 0002:000006f0       __real@8@400afff0000000000000 0045d6f0     PSINS.obj
 0002:000006f8       __real@8@400ae310000000000000 0045d6f8     PSINS.obj
 0002:00000700       __real@8@4006a200000000000000 0045d700     PSINS.obj
 0002:00000708       __real@8@4005d600000000000000 0045d708     PSINS.obj
 0002:00000710       __real@8@4004b400000000000000 0045d710     PSINS.obj
 0002:00000718       __real@8@c004f400000000000000 0045d718     PSINS.obj
 0002:00000720       __real@8@4005b400000000000000 0045d720     PSINS.obj
 0002:00000728       __real@8@4001c000000000000000 0045d728     PSINS.obj
 0002:00000730       __real@8@4011f424000000000000 0045d730     PSINS.obj
 0002:00000738       __real@8@4012f424000000000000 0045d738     PSINS.obj
 0002:00000740       __real@8@3fefc337cf5981ecf800 0045d740     PSINS.obj
 0002:00000748       __real@8@3feccf191388842eb800 0045d748     PSINS.obj
 0002:00000750       __real@8@3ff7acb7d975a7a1f000 0045d750     PSINS.obj
 0002:00000758       __real@8@c01e8000000000000000 0045d758     PSINS.obj
 0002:00000760       __real@8@401f8000000000000000 0045d760     PSINS.obj
 0002:00000768       __real@8@401dfffffffe00000000 0045d768     PSINS.obj
 0002:00000770       __real@8@3ff1c337cf5981ecf800 0045d770     PSINS.obj
 0002:00000778       __real@8@3ff8acb7d975a7a1f000 0045d778     PSINS.obj
 0002:00000780       __real@8@40029c7c37ecb5b34800 0045d780     PSINS.obj
 0002:00000788       __real@8@4015c2a5320000000000 0045d788     PSINS.obj
 0002:00000790       __real@8@400480bc6a7ef9db2000 0045d790     PSINS.obj
 0002:00000798       __real@8@4009be90000000000000 0045d798     PSINS.obj
 0002:000007a0       __real@8@4003f4cd013a92a30800 0045d7a0     PSINS.obj
 0002:000007a8       __real@8@4007b6a0000000000000 0045d7a8     PSINS.obj
 0002:000007b0       __real@8@3fff8c1eb4202d9cf000 0045d7b0     PSINS.obj
 0002:000007b8       __real@8@3ffdda71de69ad42c000 0045d7b8     PSINS.obj
 0002:000007c0       __real@8@4009fa89f2e48e8a7000 0045d7c0     PSINS.obj
 0002:000007c8       __real@8@3ffd9a9003eea209a800 0045d7c8     PSINS.obj
 0002:000007d0       __real@8@400a90237d566cf42000 0045d7d0     PSINS.obj
 0002:000007d8       __real@8@3ffe92d77318fc504800 0045d7d8     PSINS.obj
 0002:000007e0       __real@8@4002933d70a3d70a4000 0045d7e0     PSINS.obj
 0002:000007e8       __real@8@3ffc9205bc01a36e3000 0045d7e8     PSINS.obj
 0002:000007f0       __real@8@3ffcd32617c1bda51000 0045d7f0     PSINS.obj
 0002:000007f8       __real@8@3ffce8db8bac710cb000 0045d7f8     PSINS.obj
 0002:00000800       __real@8@3fffa8cb295e9e1b0800 0045d800     PSINS.obj
 0002:00000808       __real@8@c0038998c7e28240b800 0045d808     PSINS.obj
 0002:00000810       __real@8@4001ef1c432ca57a7800 0045d810     PSINS.obj
 0002:00000818       __real@8@4011dbce0cbcb5fe5800 0045d818     PSINS.obj
 0002:00000820       __real@8@4015d47d951611340800 0045d820     PSINS.obj
 0002:00000828       __real@8@4001cbdbf487fcb92000 0045d828     PSINS.obj
 0002:00000830       __real@8@401382e425a128390800 0045d830     PSINS.obj
 0002:00000838       __real@8@401dbf1681826b021000 0045d838     PSINS.obj
 0002:00000840       __real@8@4002cc04ea4a8c155000 0045d840     PSINS.obj
 0002:00000848       __real@8@4011a3f470d6e47dc000 0045d848     PSINS.obj
 0002:00000850       __real@8@401dcf5e28bdb212d800 0045d850     PSINS.obj
 0002:00000858       __real@8@3ffe8d9e83e425aee800 0045d858     PSINS.obj
 0002:00000860       __real@8@40139d1e06582a993000 0045d860     PSINS.obj
 0002:00000868       __real@8@4019f72f94a18a090000 0045d868     PSINS.obj
 0002:00000870       __real@8@400fa4ceb95810625000 0045d870     PSINS.obj
 0002:00000878       __real@8@4004bb428f5c28f5c000 0045d878     PSINS.obj
 0002:00000880       __real@8@3fffb2c6519e025f0000 0045d880     PSINS.obj
 0002:00000888       __real@8@400b9021425ac0c0d000 0045d888     PSINS.obj
 0002:00000890       __real@8@400e8ead000000000000 0045d890     PSINS.obj
 0002:00000898       __real@8@40019ca385b288876800 0045d898     PSINS.obj
 0002:000008a0       __real@8@4001c99cc637f7ab1000 0045d8a0     PSINS.obj
 0002:000008a8       __real@8@400fa8c0000000000000 0045d8a8     PSINS.obj
 0002:000008b0       __real@8@401495a1640000000000 0045d8b0     PSINS.obj
 0002:000008b8       __real@8@3ffcb2b8c2573a240800 0045d8b8     PSINS.obj
 0002:000008c0       ??_C@_069?$CFH?$CFM?$CFS?$AA@ 0045d8c0     PSINS.obj
 0002:000008c8       ??_C@_06EONK@?$CFY?$CFm?$CFd?$AA@ 0045d8c8     PSINS.obj
 0002:000008d0       ??_C@_0O@BFEF@?$CFY?$CFm?$CFd_?$CFH?$CFM?$CFS?$AA@ 0045d8d0     PSINS.obj
 0002:000008e0       ??_C@_02MMAH@rt?$AA@       0045d8e0     PSINS.obj
 0002:000008e4       ??_C@_02JKAF@rb?$AA@       0045d8e4     PSINS.obj
 0002:000008e8       ??_C@_02NGAF@wb?$AA@       0045d8e8     PSINS.obj
 0002:000008ec       ??_C@_02IAAH@wt?$AA@       0045d8ec     PSINS.obj
 0002:000008f0       ??_C@_0BA@LJAH@No?5file?5found?$CB?6?$AA@ 0045d8f0     PSINS.obj
 0002:00000900       ??_C@_0M@EFMN@listout?4txt?$AA@ 0045d900     PSINS.obj
 0002:0000090c       ??_C@_05GPCP@zzz?$CFs?$AA@ 0045d90c     PSINS.obj
 0002:00000914       ??_C@_05BGIN@yyy?$CFs?$AA@ 0045d914     PSINS.obj
 0002:0000091c       ??_C@_05MBOM@xxx?$CFs?$AA@ 0045d91c     PSINS.obj
 0002:00000924       ??_C@_05NOCD@kff?$CFs?$AA@ 0045d924     PSINS.obj
 0002:0000092c       ??_C@_05IPNP@ins?$CFs?$AA@ 0045d92c     PSINS.obj
 0002:00000934       ??_C@_08DHKK@?$CF03d?4bin?$AA@ 0045d934     PSINS.obj
 0002:00000940       ??_C@_02DILL@?$CFs?$AA@    0045d940     PSINS.obj
 0002:00000944       ??_C@_07JIH@?$CFs?7?5?$CFd?6?$AA@ 0045d944     PSINS.obj
 0002:0000094c       ??_C@_0L@LDEK@?9?9?9?5?$CFs?7?$CFd?6?$AA@ 0045d94c     PSINS.obj
 0002:00000958       ??_C@_0BK@KMHC@psinslog?$CFY?$CFm?$CFd_?$CFH?$CFM?$CFS?4txt?$AA@ 0045d958     PSINS.obj
 0002:00000974       ??_C@_0BD@EJNI@psinslog?$CFY?$CFm?$CFd?4txt?$AA@ 0045d974     PSINS.obj
 0002:00000988       ??_C@_03CDHM@at?$CL?$AA@   0045d988     PSINS.obj
 0002:0000098c       ??_C@_0BO@JMF@?6?9?9?9?9?5?$CFY?1?$CFm?1?$CFd?5?$CFH?3?$CFM?3?$CFS?5?9?9?9?9?6?$AA@ 0045d98c     PSINS.obj
 0002:000009ac       ??_C@_0BJ@CFNM@Elasped?5time?5?$CIms?$CJ?3?5?$CFld?4?6?$AA@ 0045d9ac     PSINS.obj
 0002:000009c8       ??_C@_04CAOG@?7?$CFd?5?$AA@ 0045d9c8     PSINS.obj
 0002:000009d0       ??_C@_04NLD@?7?$CFf?5?$AA@ 0045d9d0     PSINS.obj
 0002:000009d8       ??_C@_06NBJI@?7?$CF?48e?5?$AA@ 0045d9d8     PSINS.obj
 0002:000009e0       ??_C@_0BB@DEM@?7?$CF?48e?7?$CF?48e?7?$CF?48e?5?$AA@ 0045d9e0     PSINS.obj
 0002:000009f4       ??_C@_0BG@PCDA@?7?$CF?48e?7?$CF?48e?7?$CF?48e?7?$CF?48e?5?$AA@ 0045d9f4     PSINS.obj
 0002:00000a0c       ??_C@_05HIAE@?7?$CF?48e?$AA@ 0045da0c     PSINS.obj
 0002:00000a14       ??_C@_0BB@FADK@?7?$CF?48e?7?$CF?48e?7?$CF?48e?6?$AA@ 0045da14     PSINS.obj
 0002:00000a28       ??_C@_01BJG@?6?$AA@        0045da28     PSINS.obj
 0002:00000a2c       ??_C@_04FDOI@?7?$HN?$DL?6?$AA@ 0045da2c     PSINS.obj
 0002:00000a34       ??_C@_0L@KAHG@?7?$CF12?48e?$HN?0?6?$AA@ 0045da34     PSINS.obj
 0002:00000a40       ??_C@_09JLNH@?7?$CF12?48e?0?6?$AA@ 0045da40     PSINS.obj
 0002:00000a4c       ??_C@_09INDD@?7?$HL?$CF12?48e?0?$AA@ 0045da4c     PSINS.obj
 0002:00000a58       ??_C@_08EBPJ@?7?$CF12?48e?0?$AA@ 0045da58     PSINS.obj
 0002:00000a64       ??_C@_07BDML@?7?1?1?5?$CFs?6?$AA@ 0045da64     PSINS.obj
 0002:00000a6c       ??_C@_0BG@BLGG@double?5?$CFs?$FL?$CFd?$FN?$FL?$CFd?$FN?5?$DN?5?$HL?$AA@ 0045da6c     PSINS.obj
 0002:00000a84       ??_C@_0BC@CPCL@double?5?$CFs?$FL?$CFd?$FN?5?$DN?5?$HL?$AA@ 0045da84     PSINS.obj
 0002:00000a98       ??_C@_04BBDN@?7?$FN?$DL?6?$AA@ 0045da98     PSINS.obj
 0002:00000aa0       ??_C@_05PGFD@?7?$FN?8?$DL?6?$AA@ 0045daa0     PSINS.obj
 0002:00000aa8       ??_C@_07NEOK@?7?$CF?$CF?5?$CFs?6?$AA@ 0045daa8     PSINS.obj
 0002:00000ab0       ??_C@_06KJAH@?$CFs?5?$DN?5?$FL?$AA@ 0045dab0     PSINS.obj
 0002:00000ab8       ??_7CAlignkf@@6B@          0045dab8     PSINS.obj
 0002:00000ad8       __real@8@3fff8cccccccccccd000 0045dad8     PSINS.obj
 0002:00000ae0       ??_7CAligntrkang@@6B@      0045dae0     PSINS.obj
 0002:00000b00       __real@8@3ffdb2b8c2573a240800 0045db00     PSINS.obj
 0002:00000b08       __real@8@3ff583126e978d4fe000 0045db08     PSINS.obj
 0002:00000b10       ??_7CAlignsv@@6B@          0045db10     PSINS.obj
 0002:00000b30       __real@8@4003f000000000000000 0045db30     PSINS.obj
 0002:00000b38       ??_7CAligntf@@6B@          0045db38     PSINS.obj
 0002:00000b58       __real@8@3ff398825abe7cb4f000 0045db58     PSINS.obj
 0002:00000b60       __real@8@401b96a9ec0000000000 0045db60     PSINS.obj
 0002:00000b68       __real@8@4002c800000000000000 0045db68     PSINS.obj
 0002:00000b70       __real@8@400dfffe000000000000 0045db70     PSINS.obj
 0002:00000b78       ??_C@_0BB@OFFN@?7classXXX?3?5?$CF10d?6?$AA@ 0045db78     PSINS.obj
 0002:00000b8c       ??_C@_0O@JBAN@?7CRAvar?3?$CF10d?6?$AA@ 0045db8c     PSINS.obj
 0002:00000b9c       ??_C@_0BC@HMFA@?7CAutoDrive?3?$CF10d?6?$AA@ 0045db9c     PSINS.obj
 0002:00000bb0       ??_C@_0BB@BAHN@?7CSINSGNSS?3?$CF10d?6?$AA@ 0045dbb0     PSINS.obj
 0002:00000bc4       ??_C@_0BB@FEMK@?7CSINSTDKF?3?$CF10d?6?$AA@ 0045dbc4     PSINS.obj
 0002:00000bd8       ??_C@_0P@IJPD@?7CKalman?3?$CF10d?6?$AA@ 0045dbd8     PSINS.obj
 0002:00000be8       ??_C@_0N@FEIO@?7CSINS?3?$CF10d?6?$AA@ 0045dbe8     PSINS.obj
 0002:00000bf8       ??_C@_0BD@EIMM@?7CAligni0fit?3?$CF10d?6?$AA@ 0045dbf8     PSINS.obj
 0002:00000c0c       ??_C@_0BA@HEFI@?7CAligni0?3?$CF10d?6?$AA@ 0045dc0c     PSINS.obj
 0002:00000c1c       ??_C@_0BA@LMOL@?7CMaxMinn?3?$CF10d?6?$AA@ 0045dc1c     PSINS.obj
 0002:00000c2c       ??_C@_0M@CGJG@?7CMat?3?$CF10d?6?$AA@ 0045dc2c     PSINS.obj
 0002:00000c38       ??_C@_0N@IBEP@?7CVect?3?$CF10d?6?$AA@ 0045dc38     PSINS.obj
 0002:00000c48       ??_C@_0CA@FHLE@Size?5of?5each?5class?5?$CIin?5bytes?$CJ?3?6?$AA@ 0045dc48     PSINS.obj
 0002:00000c68       ??_C@_0BB@IANK@?$CFd?5?5?5?$CFd?5?5?$CFf?5?5?$CFf?6?$AA@ 0045dc68     PSINS_Demo.obj
 0002:00000c7c       ??_C@_07IPML@res?4bin?$AA@ 0045dc7c     PSINS_Demo.obj
 0002:00000c84       ??_C@_07OPPM@?4?2Data?2?$AA@ 0045dc84     PSINS_Demo.obj
 0002:00000c8c       ??_C@_08BLLN@?4?4?2Data?2?$AA@ 0045dc8c     PSINS_Demo.obj
 0002:00000c98       ??_C@_07OEB@aln?4bin?$AA@  0045dc98     PSINS_Demo.obj
 0002:00000ca0       ??_C@_0O@MFNE@lasergyro?4imu?$AA@ 0045dca0     PSINS_Demo.obj
 0002:00000cb0       ??_C@_0N@MPJO@transtrj?4bin?$AA@ 0045dcb0     PSINS_Demo.obj
 0002:00000cc0       __real@8@4004c800000000000000 0045dcc0     PSINS_Demo.obj
 0002:00000cc8       ??_C@_0L@HEFG@imugps?4bin?$AA@ 0045dcc8     PSINS_Demo.obj
 0002:00000cd4       ??_C@_0BK@ILDP@D?3?2psins210406?2vc60?2Data?2?$AA@ 0045dcd4     PSINS_Demo.obj
 0002:00000cf0       ??_C@_0BF@IDGJ@sd5_0122_100hz_x?4bin?$AA@ 0045dcf0     PSINS_Demo.obj
 0002:00000d08       ??_C@_0BG@DAGJ@D?3?2ygm2020?2?$LO?$KL?W?$LM?21229?2?$AA@ 0045dd08     PSINS_Demo.obj
 0002:00000d20       ??_C@_09IOFN@imuod?4bin?$AA@ 0045dd20     PSINS_Demo.obj
 0002:00000d2c       ??_C@_0BF@LNOH@D?3?2psins210823?2data?2?$AA@ 0045dd2c     PSINS_Demo.obj
 0002:00000d44       ??_C@_0L@KJGO@posres?4bin?$AA@ 0045dd44     PSINS_Demo.obj
 0002:00000d50       ??_C@_0M@MHAJ@imugnss?4bin?$AA@ 0045dd50     PSINS_Demo.obj
 0002:00000d5c       ??_C@_0BK@IJFH@D?3?2ygm2021?2?A?$KC?$LF?C?$LP?U?$LM?d?20901?2?$AA@ 0045dd5c     PSINS_Demo.obj
 0002:00000d78       ??_C@_0CJ@JEMJ@?$CFe?0?5?$CFe?0?5?$CFe?0?5?$CFe?0?5?$CFe?0?5?$CFe?0?5?$CFe?0?5?$CFe?0?5@ 0045dd78     PSINS_Demo.obj
 0002:00000da8       __real@8@4000e9c28f5c28f5c000 0045dda8     PSINS_Demo.obj
 0002:00000db0       ??_C@_0BP@LBJE@D?3?2psins211118?2cns?2sofapn0?4txt?$AA@ 0045ddb0     PSINS_Demo.obj
 0002:00000dd0       ??_C@_01LLF@w?$AA@         0045ddd0     PSINS_Demo.obj
 0002:00000dd4       ??_C@_0L@EEMD@imucns?4bin?$AA@ 0045ddd4     PSINS_Demo.obj
 0002:00000de0       ??_C@_0DB@KGKF@D?3?2ygm2021?2?V?P?$LP?F?$LL?$KK?P?$LO?2?$LP?U?$LJ?$KE?$LE?s?$LJ?$NP?$LF?$LM?2?E@ 0045dde0     PSINS_Demo.obj
 0002:00000e14       ??_C@_09JABB@psinscfg1?$AA@ 0045de14     PSINS_Demo.obj
 0002:00000e20       ??_C@_0N@JJDL@psinscfg?4cfg?$AA@ 0045de20     PSINS_Demo.obj
 0002:00000e30       ??_C@_08BGJI@psinscfg?$AA@ 0045de30     PSINS_Demo.obj
 0002:00000e3c       ??_C@_0N@HNBP@psinslog?4txt?$AA@ 0045de3c     PSINS_Demo.obj
 0002:00000e4c       ??_C@_0P@FFAF@imu_jialin?4bin?$AA@ 0045de4c     PSINS_Demo.obj
 0002:00000e5c       ??_C@_08KLNP@clbt?4bin?$AA@ 0045de5c     PSINS_Demo.obj
 0002:00000e68       ??_C@_0P@KAAA@E?3?2ygm2023?216?2?$AA@ 0045de68     PSINS_Demo.obj
 0002:00000e78       ??_C@_0BE@KMJL@?6?5Align?5att?5?$CIdeg?$CJ?3?5?$AA@ 0045de78     PSINS_Demo.obj
 0002:00000e8c       ??_C@_0BG@BHNN@?$CF?48f?0?$CF?48f?5?7?$CF?46f?5?$CF?46f?6?$AA@ 0045de8c     PSINS_Demo.obj
 0002:00000ea8       __real@8@4005b200000000000000 0045dea8     PSINS_Demo.obj
 0002:00000eb0       ??_C@_0CG@FPNI@?$CFd?0?$CFd?0?$CFd?7?$CFd?0?$CFd?0?$CFd?5?7?$CFd?0?$CFd?0?$CFd?7?$CFd?0?$CF@ 0045deb0     PSINS_Demo.obj
 0002:00000ed8       ??_C@_0BM@HKC@E?3?2ygm2023?2FAST?2gps0628?4log?$AA@ 0045ded8     PSINS_Demo.obj
 0002:00000ef4       ??_C@_0CE@LAPJ@E?3?2ygm2023?2FAST?2202306280731db2?4@ 0045def4     PSINS_Demo.obj
 0002:00000f18       ??_C@_03HKJG@GR?0?$AA@     0045df18     PSINS_Demo.obj
 0002:00000f1c       ??_C@_00A@?$AA@            0045df1c     SerialPort.obj
 0002:00000f20       ??_7CSerialPort@itas109@@6B@ 0045df20     SerialPort.obj
 0002:00000f24       ??_C@_0BC@OHIP@SetCommTimeouts?$CI?$CJ?$AA@ 0045df24     SerialPort.obj
 0002:00000f38       ??_C@_0O@HPG@SetCommMask?$CI?$CJ?$AA@ 0045df38     SerialPort.obj
 0002:00000f48       ??_C@_0P@LENK@GetCommState?$CI?$CJ?$AA@ 0045df48     SerialPort.obj
 0002:00000f58       ??_C@_0P@DAIJ@SetCommState?$CI?$CJ?$AA@ 0045df58     SerialPort.obj
 0002:00000f68       ??_C@_0BD@BPDC@COM?5InitPort?5Error?$AA@ 0045df68     SerialPort.obj
 0002:00000f7c       ??_C@_0CC@HOEE@baud?$DN?$CFd?5parity?$DN?$CFc?5data?$DN?$CFd?5stop?$DN?$CF@ 0045df7c     SerialPort.obj
 0002:00000fa0       ??_C@_09GLGJ@?2?2?4?2COM?$CFd?$AA@ 0045dfa0     SerialPort.obj
 0002:00000fac       ??_C@_0BD@KEIN@pPortOwner?5?$CB?$DN?5NULL?$AA@ 0045dfac     SerialPort.obj
 0002:00000fc0       ??_C@_0CI@ILID@portnr?5?$DO?50?5?$CG?$CG?5portnr?5?$DM?5MaxSerial@ 0045dfc0     SerialPort.obj
 0002:00000fe8       ??_C@_0CI@NKEL@d?3?2psins230321?2vc60?2uart?2serialp@ 0045dfe8     SerialPort.obj
 0002:00001010       ??_C@_0BA@JNCD@WaitCommEvent?$CI?$CJ?$AA@ 0045e010     SerialPort.obj
 0002:00001020       ??_C@_0BI@LCBH@COM?5WaitCommEvent?5Error?$AA@ 0045e020     SerialPort.obj
 0002:00001038       ??_C@_0BC@CLIO@Application?5Error?$AA@ 0045e038     SerialPort.obj
 0002:0000104c       ??_C@_0CG@EIAE@GetOverlappedResults?$CI?$CJ?5in?5WriteF@ 0045e04c     SerialPort.obj
 0002:00001074       ??_C@_0M@NIDJ@WriteFile?$CI?$CJ?$AA@ 0045e074     SerialPort.obj
 0002:00001080       ??_C@_0BE@GEDJ@COM?5WriteFile?5Error?$AA@ 0045e080     SerialPort.obj
 0002:00001094       ??_C@_0CF@FMNH@GetOverlappedResults?$CI?$CJ?5in?5ReadFi@ 0045e094     SerialPort.obj
 0002:000010bc       ??_C@_0L@GBFK@ReadFile?$CI?$CJ?$AA@ 0045e0bc     SerialPort.obj
 0002:000010c8       ??_C@_0BD@KCIB@COM?5ReadFile?5Error?$AA@ 0045e0c8     SerialPort.obj
 0002:000010dc       ??_C@_0CA@CIDA@m_hComm?5?$CB?$DN?5INVALID_HANDLE_VALUE?$AA@ 0045e0dc     SerialPort.obj
 0002:000010fc       ??_C@_0BJ@GFIM@CSerialPort?53?40?43?4180621?$AA@ 0045e0fc     SerialPort.obj
 0002:00001118       ??_C@_0BO@KOAC@HARDWARE?2DEVICEMAP?2SERIALCOMM?$AA@ 0045e118     SerialPort.obj
 0002:00001138       ?npos@?$basic_string@DU?$char_traits@D@std@@V?$allocator@D@2@@std@@2IB 0045e138     SerialPort.obj
 0002:0000113c       ?_C@?1??_Nullstr@?$basic_string@DU?$char_traits@D@std@@V?$allocator@D@2@@std@@CAPBDXZ@4DB 0045e13c     SerialPort.obj
 0002:00001140       ??_C@_0O@FHMD@i386?2chkesp?4c?$AA@ 0045e140     LIBCD:chkesp.obj
 0002:00001150       ??_C@_0NM@ELEE@The?5value?5of?5ESP?5was?5not?5properl@ 0045e150     LIBCD:chkesp.obj
 0002:0000122c       ??_C@_08GNFC@printf?4c?$AA@ 0045e22c     LIBCD:printf.obj
 0002:00001238       ??_C@_0P@LNLA@format?5?$CB?$DN?5NULL?$AA@ 0045e238     LIBCD:printf.obj
 0002:00001248       ??_C@_08CEA@onexit?4c?$AA@ 0045e248     LIBCD:onexit.obj
 0002:00001254       ??_C@_0L@OFGA@dbgdel?4cpp?$AA@ 0045e254     LIBCD:dbgdel.obj
 0002:00001260       ??_C@_0CH@PHOC@_BLOCK_TYPE_IS_VALID?$CIpHead?9?$DOnBlo@ 0045e260     LIBCD:dbgdel.obj
 0002:00001288       ??_C@_07CJME@H?3mm?3ss?$AA@ 0045e288     LIBCD:strftime.obj
 0002:00001290       ??_C@_0BE@MHI@dddd?0?5MMMM?5dd?0?5yyyy?$AA@ 0045e290     LIBCD:strftime.obj
 0002:000012a4       ??_C@_06HCAD@M?1d?1yy?$AA@ 0045e2a4     LIBCD:strftime.obj
 0002:000012ac       ??_C@_02DBLP@PM?$AA@       0045e2ac     LIBCD:strftime.obj
 0002:000012b0       ??_C@_02ENLM@AM?$AA@       0045e2b0     LIBCD:strftime.obj
 0002:000012b4       ??_C@_08LIDF@December?$AA@ 0045e2b4     LIBCD:strftime.obj
 0002:000012c0       ??_C@_08NJLI@November?$AA@ 0045e2c0     LIBCD:strftime.obj
 0002:000012cc       ??_C@_07IAMM@October?$AA@  0045e2cc     LIBCD:strftime.obj
 0002:000012d4       ??_C@_09MKGD@September?$AA@ 0045e2d4     LIBCD:strftime.obj
 0002:000012e0       ??_C@_06PADP@August?$AA@   0045e2e0     LIBCD:strftime.obj
 0002:000012e8       ??_C@_04PIJO@July?$AA@     0045e2e8     LIBCD:strftime.obj
 0002:000012f0       ??_C@_04ICFP@June?$AA@     0045e2f0     LIBCD:strftime.obj
 0002:000012f8       ??_C@_05JFGC@April?$AA@    0045e2f8     LIBCD:strftime.obj
 0002:00001300       ??_C@_05FGPD@March?$AA@    0045e300     LIBCD:strftime.obj
 0002:00001308       ??_C@_08PGBA@February?$AA@ 0045e308     LIBCD:strftime.obj
 0002:00001314       ??_C@_07BPKJ@January?$AA@  0045e314     LIBCD:strftime.obj
 0002:0000131c       ??_C@_03PGJO@Dec?$AA@      0045e31c     LIBCD:strftime.obj
 0002:00001320       ??_C@_03PDLM@Nov?$AA@      0045e320     LIBCD:strftime.obj
 0002:00001324       ??_C@_03BLHK@Oct?$AA@      0045e324     LIBCD:strftime.obj
 0002:00001328       ??_C@_03DPFM@Sep?$AA@      0045e328     LIBCD:strftime.obj
 0002:0000132c       ??_C@_03CMCH@Aug?$AA@      0045e32c     LIBCD:strftime.obj
 0002:00001330       ??_C@_03OBKI@Jul?$AA@      0045e330     LIBCD:strftime.obj
 0002:00001334       ??_C@_03LEIG@Jun?$AA@      0045e334     LIBCD:strftime.obj
 0002:00001338       ??_C@_03MGHB@May?$AA@      0045e338     LIBCD:strftime.obj
 0002:0000133c       ??_C@_03MJJM@Apr?$AA@      0045e33c     LIBCD:strftime.obj
 0002:00001340       ??_C@_03GNHA@Mar?$AA@      0045e340     LIBCD:strftime.obj
 0002:00001344       ??_C@_03PICE@Feb?$AA@      0045e344     LIBCD:strftime.obj
 0002:00001348       ??_C@_03IEIF@Jan?$AA@      0045e348     LIBCD:strftime.obj
 0002:0000134c       ??_C@_08FAKH@Saturday?$AA@ 0045e34c     LIBCD:strftime.obj
 0002:00001358       ??_C@_06ONCK@Friday?$AA@   0045e358     LIBCD:strftime.obj
 0002:00001360       ??_C@_08CCFO@Thursday?$AA@ 0045e360     LIBCD:strftime.obj
 0002:0000136c       ??_C@_09PBIN@Wednesday?$AA@ 0045e36c     LIBCD:strftime.obj
 0002:00001378       ??_C@_07BMBC@Tuesday?$AA@  0045e378     LIBCD:strftime.obj
 0002:00001380       ??_C@_06CHLK@Monday?$AA@   0045e380     LIBCD:strftime.obj
 0002:00001388       ??_C@_06OOEM@Sunday?$AA@   0045e388     LIBCD:strftime.obj
 0002:00001390       ??_C@_03MPKK@Sat?$AA@      0045e390     LIBCD:strftime.obj
 0002:00001394       ??_C@_03FINJ@Fri?$AA@      0045e394     LIBCD:strftime.obj
 0002:00001398       ??_C@_03HIKC@Thu?$AA@      0045e398     LIBCD:strftime.obj
 0002:0000139c       ??_C@_03HECK@Wed?$AA@      0045e39c     LIBCD:strftime.obj
 0002:000013a0       ??_C@_03ECCP@Tue?$AA@      0045e3a0     LIBCD:strftime.obj
 0002:000013a4       ??_C@_03PIEP@Mon?$AA@      0045e3a4     LIBCD:strftime.obj
 0002:000013a8       ??_C@_03FHEP@Sun?$AA@      0045e3a8     LIBCD:strftime.obj
 0002:000013ac       ??_C@_03MKGK@a?1p?$AA@     0045e3ac     LIBCD:strftime.obj
 0002:000013b0       ??_C@_05BDJK@am?1pm?$AA@   0045e3b0     LIBCD:strftime.obj
 0002:000013b8       ??_C@_08PHBD@fclose?4c?$AA@ 0045e3b8     LIBCD:fclose.obj
 0002:000013c4       ??_C@_0M@KJPK@str?5?$CB?$DN?5NULL?$AA@ 0045e3c4     LIBCD:fclose.obj
 0002:000013d0       ??_C@_07HFEM@fseek?4c?$AA@ 0045e3d0     LIBCD:fseek.obj
 0002:000013d8       ??_C@_07LIGC@fgets?4c?$AA@ 0045e3d8     LIBCD:fgets.obj
 0002:000013e0       ??_C@_0P@OOIN@string?5?$CB?$DN?5NULL?$AA@ 0045e3e0     LIBCD:fgets.obj
 0002:000013f0       ??_C@_07CMIP@ftell?4c?$AA@ 0045e3f0     LIBCD:ftell.obj
 0002:000013f8       ??_C@_0BC@IPFL@?$CKmode?5?$CB?$DN?5_T?$CI?8?20?8?$CJ?$AA@ 0045e3f8     LIBCD:fopen.obj
 0002:0000140c       ??_C@_0N@BKPP@mode?5?$CB?$DN?5NULL?$AA@ 0045e40c     LIBCD:fopen.obj
 0002:0000141c       ??_C@_0BC@GOED@?$CKfile?5?$CB?$DN?5_T?$CI?8?20?8?$CJ?$AA@ 0045e41c     LIBCD:fopen.obj
 0002:00001430       ??_C@_07OMGG@fopen?4c?$AA@ 0045e430     LIBCD:fopen.obj
 0002:00001438       ??_C@_0N@MCKG@file?5?$CB?$DN?5NULL?$AA@ 0045e438     LIBCD:fopen.obj
 0002:00001448       ??_C@_08EJDA@sscanf?4c?$AA@ 0045e448     LIBCD:sscanf.obj
 0002:00001454       ??_C@_09NEAG@sprintf?4c?$AA@ 0045e454     LIBCD:sprintf.obj
 0002:00001460       ??_C@_09DLOM@fprintf?4c?$AA@ 0045e460     LIBCD:fprintf.obj
 0002:0000146c       ??_C@_06DPMO@Client?$AA@   0045e46c     LIBCD:dbgheap.obj
 0002:00001474       ??_C@_06BAFM@Ignore?$AA@   0045e474     LIBCD:dbgheap.obj
 0002:0000147c       ??_C@_03DICE@CRT?$AA@      0045e47c     LIBCD:dbgheap.obj
 0002:00001480       ??_C@_06BILL@Normal?$AA@   0045e480     LIBCD:dbgheap.obj
 0002:00001488       ??_C@_04NEN@Free?$AA@      0045e488     LIBCD:dbgheap.obj
 0002:00001490       ??_C@_0DC@CGID@Error?3?5memory?5allocation?3?5bad?5me@ 0045e490     LIBCD:dbgheap.obj
 0002:000014c4       ??_C@_0CE@FMIA@Invalid?5allocation?5size?3?5?$CFu?5byte@ 0045e4c4     LIBCD:dbgheap.obj
 0002:000014e8       ??_C@_0CB@CPBI@Client?5hook?5allocation?5failure?4?6@ 0045e4e8     LIBCD:dbgheap.obj
 0002:0000150c       ??_C@_0DF@DKHF@Client?5hook?5allocation?5failure?5a@ 0045e50c     LIBCD:dbgheap.obj
 0002:00001544       ??_C@_09IMJC@dbgheap?4c?$AA@ 0045e544     LIBCD:dbgheap.obj
 0002:00001550       ??_C@_0BC@EPKL@_CrtCheckMemory?$CI?$CJ?$AA@ 0045e550     LIBCD:dbgheap.obj
 0002:00001564       ??_C@_0BK@JDHA@_pFirstBlock?5?$DN?$DN?5pOldBlock?$AA@ 0045e564     LIBCD:dbgheap.obj
 0002:00001580       ??_C@_0BJ@NMEF@_pLastBlock?5?$DN?$DN?5pOldBlock?$AA@ 0045e580     LIBCD:dbgheap.obj
 0002:0000159c       ??_C@_0DC@BOCN@fRealloc?5?$HM?$HM?5?$CI?$CBfRealloc?5?$CG?$CG?5pNewBl@ 0045e59c     LIBCD:dbgheap.obj
 0002:000015d0       ??_C@_0DK@DKOM@_BLOCK_TYPE?$CIpOldBlock?9?$DOnBlockUse@ 0045e5d0     LIBCD:dbgheap.obj
 0002:0000160c       ??_C@_0EF@EDKM@pOldBlock?9?$DOnLine?5?$DN?$DN?5IGNORE_LINE?5@ 0045e60c     LIBCD:dbgheap.obj
 0002:00001654       ??_C@_0CC@GPMO@_CrtIsValidHeapPointer?$CIpUserData@ 0045e654     LIBCD:dbgheap.obj
 0002:00001678       ??_C@_0CN@FHGE@Allocation?5too?5large?5or?5negative@ 0045e678     LIBCD:dbgheap.obj
 0002:000016a8       ??_C@_0CE@EAMN@Client?5hook?5re?9allocation?5failur@ 0045e6a8     LIBCD:dbgheap.obj
 0002:000016cc       ??_C@_0DI@KKMM@Client?5hook?5re?9allocation?5failur@ 0045e6cc     LIBCD:dbgheap.obj
 0002:00001704       ??_C@_0BG@JCEC@_pFirstBlock?5?$DN?$DN?5pHead?$AA@ 0045e704     LIBCD:dbgheap.obj
 0002:0000171c       ??_C@_0BF@NLNN@_pLastBlock?5?$DN?$DN?5pHead?$AA@ 0045e71c     LIBCD:dbgheap.obj
 0002:00001734       ??_C@_0BO@PLHH@pHead?9?$DOnBlockUse?5?$DN?$DN?5nBlockUse?$AA@ 0045e734     LIBCD:dbgheap.obj
 0002:00001754       ??_C@_0DN@KKIO@pHead?9?$DOnLine?5?$DN?$DN?5IGNORE_LINE?5?$CG?$CG?5p@ 0045e754     LIBCD:dbgheap.obj
 0002:00001794       ??_C@_0CK@OJNB@DAMAGE?3?5after?5?$CFhs?5block?5?$CI?$CD?$CFd?$CJ?5at@ 0045e794     LIBCD:dbgheap.obj
 0002:000017c0       ??_C@_0CL@IJIL@DAMAGE?3?5before?5?$CFhs?5block?5?$CI?$CD?$CFd?$CJ?5a@ 0045e7c0     LIBCD:dbgheap.obj
 0002:000017ec       ??_C@_0BL@MBNA@Client?5hook?5free?5failure?4?6?$AA@ 0045e7ec     LIBCD:dbgheap.obj
 0002:00001808       ??_C@_0DK@EKKL@memory?5check?5error?5at?50x?$CF08X?5?$DN?50@ 0045e808     LIBCD:dbgheap.obj
 0002:00001844       ??_C@_0CJ@GCII@?$CFhs?5located?5at?50x?$CF08X?5is?5?$CFu?5byte@ 0045e844     LIBCD:dbgheap.obj
 0002:00001870       ??_C@_0CA@EJPI@?$CFhs?5allocated?5at?5file?5?$CFhs?$CI?$CFd?$CJ?4?6?$AA@ 0045e870     LIBCD:dbgheap.obj
 0002:00001890       ??_C@_0CJ@LHHG@DAMAGE?3?5on?5top?5of?5Free?5block?5at?5@ 0045e890     LIBCD:dbgheap.obj
 0002:000018bc       ??_C@_07GJHM@DAMAGED?$AA@  0045e8bc     LIBCD:dbgheap.obj
 0002:000018c4       ??_C@_0CL@ODIE@_heapchk?5fails?5with?5unknown?5retu@ 0045e8c4     LIBCD:dbgheap.obj
 0002:000018f0       ??_C@_0CC@EHNC@_heapchk?5fails?5with?5_HEAPBADPTR?4@ 0045e8f0     LIBCD:dbgheap.obj
 0002:00001914       ??_C@_0CC@JNDP@_heapchk?5fails?5with?5_HEAPBADEND?4@ 0045e914     LIBCD:dbgheap.obj
 0002:00001938       ??_C@_0CD@DNMG@_heapchk?5fails?5with?5_HEAPBADNODE@ 0045e938     LIBCD:dbgheap.obj
 0002:0000195c       ??_C@_0CE@JMCB@_heapchk?5fails?5with?5_HEAPBADBEGI@ 0045e95c     LIBCD:dbgheap.obj
 0002:00001980       ??_C@_0CD@MEMI@Bad?5memory?5block?5found?5at?50x?$CF08X@ 0045e980     LIBCD:dbgheap.obj
 0002:000019a4       ??_C@_0CI@GMAO@_CrtMemCheckPoint?3?5NULL?5state?5po@ 0045e9a4     LIBCD:dbgheap.obj
 0002:000019cc       ??_C@_0CI@MNAE@_CrtMemDifference?3?5NULL?5state?5po@ 0045e9cc     LIBCD:dbgheap.obj
 0002:000019f4       ??_C@_0BH@PKIJ@Object?5dump?5complete?4?6?$AA@ 0045e9f4     LIBCD:dbgheap.obj
 0002:00001a0c       ??_C@_0DB@DBPF@crt?5block?5at?50x?$CF08X?0?5subtype?5?$CFx?0@ 0045ea0c     LIBCD:dbgheap.obj
 0002:00001a40       ??_C@_0CI@JLM@normal?5block?5at?50x?$CF08X?0?5?$CFu?5bytes@ 0045ea40     LIBCD:dbgheap.obj
 0002:00001a68       ??_C@_0DE@PFEA@client?5block?5at?50x?$CF08X?0?5subtype?5@ 0045ea68     LIBCD:dbgheap.obj
 0002:00001a9c       ??_C@_06MBCE@?$HL?$CFld?$HN?5?$AA@ 0045ea9c     LIBCD:dbgheap.obj
 0002:00001aa4       ??_C@_0L@BLDJ@?$CFhs?$CI?$CFd?$CJ?5?3?5?$AA@ 0045eaa4     LIBCD:dbgheap.obj
 0002:00001ab0       ??_C@_0BE@FEMA@?$CDFile?5Error?$CD?$CI?$CFd?$CJ?5?3?5?$AA@ 0045eab0     LIBCD:dbgheap.obj
 0002:00001ac4       ??_C@_0BE@FPPM@Dumping?5objects?5?9?$DO?6?$AA@ 0045eac4     LIBCD:dbgheap.obj
 0002:00001ad8       ??_C@_0BA@POLM@?5Data?3?5?$DM?$CFs?$DO?5?$CFs?6?$AA@ 0045ead8     LIBCD:dbgheap.obj
 0002:00001ae8       ??_C@_05JLAO@?$CF?42X?5?$AA@ 0045eae8     LIBCD:dbgheap.obj
 0002:00001af0       ??_C@_0BI@KONA@Detected?5memory?5leaks?$CB?6?$AA@ 0045eaf0     LIBCD:dbgheap.obj
 0002:00001b08       ??_C@_0BP@LCCN@Total?5allocations?3?5?$CFld?5bytes?4?6?$AA@ 0045eb08     LIBCD:dbgheap.obj
 0002:00001b28       ??_C@_0CB@COID@Largest?5number?5used?3?5?$CFld?5bytes?4?6@ 0045eb28     LIBCD:dbgheap.obj
 0002:00001b4c       ??_C@_0BO@MEJD@?$CFld?5bytes?5in?5?$CFld?5?$CFhs?5Blocks?4?6?$AA@ 0045eb4c     LIBCD:dbgheap.obj
 0002:00001b6c       ??_C@_02JJJH@?6?6?$AA@     0045eb6c     LIBCD:assert.obj
 0002:00001b70       ??_C@_03NAME@?4?4?4?$AA@   0045eb70     LIBCD:assert.obj
 0002:00001b74       ??_C@_0CF@JPDF@Microsoft?5Visual?5C?$CL?$CL?5Runtime?5Lib@ 0045eb74     LIBCD:assert.obj
 0002:00001b9c       ??_C@_0DN@MHHJ@?$CIPress?5Retry?5to?5debug?5the?5applic@ 0045eb9c     LIBCD:assert.obj
 0002:00001bdc       ??_C@_0HA@EJLJ@For?5information?5on?5how?5your?5prog@ 0045ebdc     LIBCD:assert.obj
 0002:00001c4c       ??_C@_0N@NOAB@Expression?3?5?$AA@ 0045ec4c     LIBCD:assert.obj
 0002:00001c5c       ??_C@_06JMOL@Line?3?5?$AA@ 0045ec5c     LIBCD:assert.obj
 0002:00001c64       ??_C@_06FAAO@File?3?5?$AA@ 0045ec64     LIBCD:assert.obj
 0002:00001c6c       ??_C@_0BH@NNCD@?$DMprogram?5name?5unknown?$DO?$AA@ 0045ec6c     LIBCD:assert.obj
 0002:00001c84       ??_C@_09PIFG@Program?3?5?$AA@ 0045ec84     LIBCD:assert.obj
 0002:00001c90       ??_C@_0BC@OIMC@Assertion?5failed?$CB?$AA@ 0045ec90     LIBCD:assert.obj
 0002:00001cd4       ??_C@_0BK@JEGK@IsProcessorFeaturePresent?$AA@ 0045ecd4     LIBCD:testfdiv.obj
 0002:00001cf0       ??_C@_08OBID@KERNEL32?$AA@ 0045ecf0     LIBCD:testfdiv.obj
 0002:00001cfc       ??_C@_05OFLO@e?$CL000?$AA@ 0045ecfc     LIBCD:cvt.obj
 0002:00001d04       ??_C@_0BB@BLL@Assertion?5Failed?$AA@ 0045ed04     LIBCD:dbgrpt.obj
 0002:00001d18       ??_C@_05CKBG@Error?$AA@    0045ed18     LIBCD:dbgrpt.obj
 0002:00001d20       ??_C@_07JCGI@Warning?$AA@  0045ed20     LIBCD:dbgrpt.obj
 0002:00001d28       ??_C@_0M@ODEP@?$CFs?$CI?$CFd?$CJ?5?3?5?$CFs?$AA@ 0045ed28     LIBCD:dbgrpt.obj
 0002:00001d34       ??_C@_01FEHD@?$AN?$AA@     0045ed34     LIBCD:dbgrpt.obj
 0002:00001d38       ??_C@_0BD@BEAK@Assertion?5failed?3?5?$AA@ 0045ed38     LIBCD:dbgrpt.obj
 0002:00001d4c       ??_C@_0CL@LCCP@_CrtDbgReport?3?5String?5too?5long?5o@ 0045ed4c     LIBCD:dbgrpt.obj
 0002:00001d78       ??_C@_0DC@EMDK@Second?5Chance?5Assertion?5Failed?3?5@ 0045ed78     LIBCD:dbgrpt.obj
 0002:00001dac       ??_C@_09NJAK@wsprintfA?$AA@ 0045edac     LIBCD:dbgrpt.obj
 0002:00001db8       ??_C@_0L@HKL@user32?4dll?$AA@ 0045edb8     LIBCD:dbgrpt.obj
 0002:00001dc4       ??_C@_0CD@GCMD@Microsoft?5Visual?5C?$CL?$CL?5Debug?5Libra@ 0045edc4     LIBCD:dbgrpt.obj
 0002:00001de8       ??_C@_0FD@EBDD@Debug?5?$CFs?$CB?6?6Program?3?5?$CFs?$CFs?$CFs?$CFs?$CFs?$CFs@ 0045ede8     LIBCD:dbgrpt.obj
 0002:00001e3c       ??_C@_09DCKN@?6Module?3?5?$AA@ 0045ee3c     LIBCD:dbgrpt.obj
 0002:00001e48       ??_C@_07HJII@?6File?3?5?$AA@ 0045ee48     LIBCD:dbgrpt.obj
 0002:00001e50       ??_C@_07LFGN@?6Line?3?5?$AA@ 0045ee50     LIBCD:dbgrpt.obj
 0002:00001e58       ??_C@_0HD@BHFH@?6?6For?5information?5on?5how?5your?5pr@ 0045ee58     LIBCD:dbgrpt.obj
 0002:00001ecc       ??_C@_08GFHP@dbgrpt?4c?$AA@ 0045eecc     LIBCD:dbgrpt.obj
 0002:00001ed8       ??_C@_0BG@FBEA@szUserMessage?5?$CB?$DN?5NULL?$AA@ 0045eed8     LIBCD:dbgrpt.obj
 0002:00001ef0       ??_C@_09JNND@_sftbuf?4c?$AA@ 0045eef0     LIBCD:_sftbuf.obj
 0002:00001efc       ??_C@_0BH@EOPG@flag?5?$DN?$DN?50?5?$HM?$HM?5flag?5?$DN?$DN?51?$AA@ 0045eefc     LIBCD:_sftbuf.obj
 0002:00001f14       ___lookuptable             0045ef14     LIBCD:output.obj
 0002:00001f70       ??_C@_1O@POHA@?$AA?$CI?$AAn?$AAu?$AAl?$AAl?$AA?$CJ?$AA?$AA@ 0045ef70     LIBCD:output.obj
 0002:00001f80       ??_C@_06ONKE@?$CInull?$CJ?$AA@ 0045ef80     LIBCD:output.obj
 0002:00001f88       ??_C@_08MIHI@output?4c?$AA@ 0045ef88     LIBCD:output.obj
 0002:00001f94       ??_C@_0P@PIHB@ch?5?$CB?$DN?5_T?$CI?8?20?8?$CJ?$AA@ 0045ef94     LIBCD:output.obj
 0002:00001fa4       ??_C@_07HPAH@_file?4c?$AA@ 0045efa4     LIBCD:_file.obj
 0002:00002038       __DEFAULT_CW_in_mem        0045f038     LIBCD:common.obj
 0002:0000203a       __pi_by_2_to_61            0045f03a     LIBCD:common.obj
 0002:000020b0       ??_C@_03GAFO@_yn?$AA@      0045f0b0     LIBCD:fpexcept.obj
 0002:000020b4       ??_C@_03GNLD@_y1?$AA@      0045f0b4     LIBCD:fpexcept.obj
 0002:000020b8       ??_C@_03MHCE@_y0?$AA@      0045f0b8     LIBCD:fpexcept.obj
 0002:000020bc       ??_C@_05PAK@frexp?$AA@     0045f0bc     LIBCD:fpexcept.obj
 0002:000020c4       ??_C@_04JKCH@fmod?$AA@     0045f0c4     LIBCD:fpexcept.obj
 0002:000020cc       ??_C@_06GGHF@_hypot?$AA@   0045f0cc     LIBCD:fpexcept.obj
 0002:000020d4       ??_C@_05JNMC@_cabs?$AA@    0045f0d4     LIBCD:fpexcept.obj
 0002:000020dc       ??_C@_05MEKH@ldexp?$AA@    0045f0dc     LIBCD:fpexcept.obj
 0002:000020e4       ??_C@_04KAOJ@modf?$AA@     0045f0e4     LIBCD:fpexcept.obj
 0002:000020ec       ??_C@_04EHAJ@fabs?$AA@     0045f0ec     LIBCD:fpexcept.obj
 0002:000020f4       ??_C@_05MFBN@floor?$AA@    0045f0f4     LIBCD:fpexcept.obj
 0002:000020fc       ??_C@_04JJMP@ceil?$AA@     0045f0fc     LIBCD:fpexcept.obj
 0002:00002104       ??_C@_03JLPI@tan?$AA@      0045f104     LIBCD:fpexcept.obj
 0002:00002108       ??_C@_03DLFL@cos?$AA@      0045f108     LIBCD:fpexcept.obj
 0002:0000210c       ??_C@_03JAMN@sin?$AA@      0045f10c     LIBCD:fpexcept.obj
 0002:00002110       ??_C@_04LMBE@sqrt?$AA@     0045f110     LIBCD:fpexcept.obj
 0002:00002118       ??_C@_05BFPO@atan2?$AA@    0045f118     LIBCD:fpexcept.obj
 0002:00002120       ??_C@_04EAGN@atan?$AA@     0045f120     LIBCD:fpexcept.obj
 0002:00002128       ??_C@_04OAMO@acos?$AA@     0045f128     LIBCD:fpexcept.obj
 0002:00002130       ??_C@_04ELFI@asin?$AA@     0045f130     LIBCD:fpexcept.obj
 0002:00002138       ??_C@_04LFAD@tanh?$AA@     0045f138     LIBCD:fpexcept.obj
 0002:00002140       ??_C@_04PFKD@cosh?$AA@     0045f140     LIBCD:fpexcept.obj
 0002:00002148       ??_C@_04NPAI@sinh?$AA@     0045f148     LIBCD:fpexcept.obj
 0002:00002150       ??_C@_05IJHH@log10?$AA@    0045f150     LIBCD:fpexcept.obj
 0002:00002158       ??_C@_03BGKD@log?$AA@      0045f158     LIBCD:fpexcept.obj
 0002:0000215c       ??_C@_03EGFG@pow?$AA@      0045f15c     LIBCD:fpexcept.obj
 0002:00002160       ??_C@_03CDGJ@exp?$AA@      0045f160     LIBCD:fpexcept.obj
 0002:00002164       ___dnames                  0045f164     LIBCD:timeset.obj
 0002:0000217c       ___mnames                  0045f17c     LIBCD:timeset.obj
 0002:000021a4       ??_C@_07DEKI@tzset?4c?$AA@ 0045f1a4     LIBCD:tzset.obj
 0002:000021ac       ??_C@_02JHIA@TZ?$AA@       0045f1ac     LIBCD:tzset.obj
 0002:000021b0       ??_C@_0L@JIE@_freebuf?4c?$AA@ 0045f1b0     LIBCD:_freebuf.obj
 0002:000021bc       ??_C@_0P@FHEA@stream?5?$CB?$DN?5NULL?$AA@ 0045f1bc     LIBCD:_freebuf.obj
 0002:000021cc       ??_C@_09DNOI@_filbuf?4c?$AA@ 0045f1cc     LIBCD:_filbuf.obj
 0002:000021d8       ??_C@_08KFDJ@ioinit?4c?$AA@ 0045f1d8     LIBCD:ioinit.obj
 0002:000021e4       ??_C@_07INLA@_open?4c?$AA@ 0045f1e4     LIBCD:_open.obj
 0002:000021ec       ??_C@_0BB@COCE@filename?5?$CB?$DN?5NULL?$AA@ 0045f1ec     LIBCD:_open.obj
 0002:00002200       ??_C@_08HJEP@stream?4c?$AA@ 0045f200     LIBCD:stream.obj
 0002:0000220c       ??_C@_07IEFA@input?4c?$AA@ 0045f20c     LIBCD:input.obj
 0002:00002214       ??_C@_0DP@IHIN@?$CI?$CCinconsistent?5IOB?5fields?$CC?0?5stre@ 0045f214     LIBCD:_flsbuf.obj
 0002:00002254       ??_C@_09LGEI@_flsbuf?4c?$AA@ 0045f254     LIBCD:_flsbuf.obj
 0002:00002260       ??_C@_0BH@PHHF@__GLOBAL_HEAP_SELECTED?$AA@ 0045f260     LIBCD:heapinit.obj
 0002:00002278       ??_C@_0BF@BBGL@__MSVCRT_HEAP_SELECT?$AA@ 0045f278     LIBCD:heapinit.obj
 0002:00002290       ??_C@_01A@?$AA?$AA@        0045f290     LIBCD:a_map.obj
 0002:00002294       ??_C@_13A@?$AA?$AA?$AA?$AA@ 0045f294     LIBCD:a_map.obj
 0002:000022b0       ??_C@_0BD@NJFP@GetLastActivePopup?$AA@ 0045f2b0     LIBCD:crtmbox.obj
 0002:000022c4       ??_C@_0BA@GILI@GetActiveWindow?$AA@ 0045f2c4     LIBCD:crtmbox.obj
 0002:000022d4       ??_C@_0M@PKCK@MessageBoxA?$AA@ 0045f2d4     LIBCD:crtmbox.obj
 0002:000022e0       ??_C@_09GCII@setvbuf?4c?$AA@ 0045f2e0     LIBCD:setvbuf.obj
 0002:000022ec       ??_C@_09IGKD@stdenvp?4c?$AA@ 0045f2ec     LIBCD:stdenvp.obj
 0002:000022f8       ??_C@_09MPMN@stdargv?4c?$AA@ 0045f2f8     LIBCD:stdargv.obj
 0002:00002304       ??_C@_07BNNE@a_env?4c?$AA@ 0045f304     LIBCD:a_env.obj
 0002:0000230c       ??_C@_0P@GGKG@runtime?5error?5?$AA@ 0045f30c     LIBCD:crt0msg.obj
 0002:0000231c       ??_C@_02PIMC@?$AN?6?$AA@   0045f31c     LIBCD:crt0msg.obj
 0002:00002320       ??_C@_0O@DELO@TLOSS?5error?$AN?6?$AA@ 0045f320     LIBCD:crt0msg.obj
 0002:00002330       ??_C@_0N@OMLL@SING?5error?$AN?6?$AA@ 0045f330     LIBCD:crt0msg.obj
 0002:00002340       ??_C@_0P@OJAK@DOMAIN?5error?$AN?6?$AA@ 0045f340     LIBCD:crt0msg.obj
 0002:00002350       ??_C@_0CF@EANP@R6028?$AN?6?9?5unable?5to?5initialize?5he@ 0045f350     LIBCD:crt0msg.obj
 0002:00002378       ??_C@_0DF@ECGN@R6027?$AN?6?9?5not?5enough?5space?5for?5lo@ 0045f378     LIBCD:crt0msg.obj
 0002:000023b0       ??_C@_0DF@FKAC@R6026?$AN?6?9?5not?5enough?5space?5for?5st@ 0045f3b0     LIBCD:crt0msg.obj
 0002:000023e8       ??_C@_0CG@DPMN@R6025?$AN?6?9?5pure?5virtual?5function?5c@ 0045f3e8     LIBCD:crt0msg.obj
 0002:00002410       ??_C@_0DF@CKIP@R6024?$AN?6?9?5not?5enough?5space?5for?5_o@ 0045f410     LIBCD:crt0msg.obj
 0002:00002448       ??_C@_0CJ@GGOE@R6019?$AN?6?9?5unable?5to?5open?5console?5@ 0045f448     LIBCD:crt0msg.obj
 0002:00002474       ??_C@_0CB@LBOB@R6018?$AN?6?9?5unexpected?5heap?5error?$AN?6@ 0045f474     LIBCD:crt0msg.obj
 0002:00002498       ??_C@_0CN@FPEG@R6017?$AN?6?9?5unexpected?5multithread?5@ 0045f498     LIBCD:crt0msg.obj
 0002:000024c8       ??_C@_0CM@OBIC@R6016?$AN?6?9?5not?5enough?5space?5for?5th@ 0045f4c8     LIBCD:crt0msg.obj
 0002:000024f4       ??_C@_0CB@HPAL@?$AN?6abnormal?5program?5termination?$AN?6@ 0045f4f4     LIBCD:crt0msg.obj
 0002:00002518       ??_C@_0CM@JOOB@R6009?$AN?6?9?5not?5enough?5space?5for?5en@ 0045f518     LIBCD:crt0msg.obj
 0002:00002544       ??_C@_0CK@OIBL@R6008?$AN?6?9?5not?5enough?5space?5for?5ar@ 0045f544     LIBCD:crt0msg.obj
 0002:00002570       ??_C@_0CF@LKPB@R6002?$AN?6?9?5floating?5point?5not?5load@ 0045f570     LIBCD:crt0msg.obj
 0002:00002598       ??_C@_0BK@DEOK@Runtime?5Error?$CB?6?6Program?3?5?$AA@ 0045f598     LIBCD:crt0msg.obj
 0002:000025b4       ??_C@_0L@HE@vsprintf?4c?$AA@ 0045f5b4     LIBCD:vsnprint.obj
 0002:000025c0       ??_C@_09LNLM@osfinfo?4c?$AA@ 0045f5c0     LIBCD:osfinfo.obj
 0002:000025cc       ??_C@_09EMDO@_getbuf?4c?$AA@ 0045f5cc     LIBCD:_getbuf.obj
 0002:000025d8       ??_C@_08MOLN@mbtowc?4c?$AA@ 0045f5d8     LIBCD:mbtowc.obj
 0002:000025e4       ??_C@_0CD@NPPL@MB_CUR_MAX?5?$DN?$DN?51?5?$HM?$HM?5MB_CUR_MAX?5?$DN?$DN@ 0045f5e4     LIBCD:mbtowc.obj
 0002:00002608       ??_C@_08JKP@ungetc?4c?$AA@ 0045f608     LIBCD:ungetc.obj
 0002:00002624       ??_C@_06PAPI@1?$CDQNAN?$AA@ 0045f624     LIBCD:x10fout.obj
 0002:0000262c       ??_C@_05BGNL@1?$CDINF?$AA@ 0045f62c     LIBCD:x10fout.obj
 0002:00002634       ??_C@_05EDPF@1?$CDIND?$AA@ 0045f634     LIBCD:x10fout.obj
 0002:0000263c       ??_C@_06LKFM@1?$CDSNAN?$AA@ 0045f63c     LIBCD:x10fout.obj
 0002:00002644       ??_C@_0L@EJNO@wtombenv?4c?$AA@ 0045f644     LIBCD:wtombenv.obj
 0002:00002650       ??_C@_08EIOK@chsize?4c?$AA@ 0045f650     LIBCD:chsize.obj
 0002:0000265c       ??_C@_09NPGF@size?5?$DO?$DN?50?$AA@ 0045f65c     LIBCD:chsize.obj
 0002:00002668       ??_C@_07FOIK@a_cmp?4c?$AA@ 0045f668     LIBCD:a_cmp.obj
 0002:00002670       ??_C@_0DN@PPKB@cchCount1?$DN?$DN0?5?$CG?$CG?5cchCount2?$DN?$DN1?5?$HM?$HM?5@ 0045f670     LIBCD:a_cmp.obj
 0002:000026c8       ??_C@_08FEIK@setenv?4c?$AA@ 0045f6c8     LIBCD:setenv.obj
 0002:000026d4       ??_C@_0BA@HHMB@string?5too?5long?$AA@ 0045f6d4     libcpd:string.obj
 0002:000026e8       ??_7logic_error@std@@6B@   0045f6e8     libcpd:string.obj
 0002:000026f8       ??_7length_error@std@@6B@  0045f6f8     libcpd:string.obj
 0002:00002704       ??_C@_0BI@EEBE@invalid?5string?5position?$AA@ 0045f704     libcpd:string.obj
 0002:00002720       ??_7out_of_range@std@@6B@  0045f720     libcpd:string.obj
 0002:00002730       ??_7exception@@6B@         0045f730     LIBCD:stdexcpt.obj
 0002:00002738       ??_C@_0BC@OIDF@Unknown?5exception?$AA@ 0045f738     LIBCD:stdexcpt.obj
 0002:00002750       ??_7type_info@@6B@         0045f750     LIBCD:typinfo.obj
 0002:00002778       ??_R1A@?0A@A@exception@@8  0045f778     libcpd:string.obj
 0002:00002790       ??_R1A@?0A@A@logic_error@std@@8 0045f790     libcpd:string.obj
 0002:000027a8       ??_R2logic_error@std@@8    0045f7a8     libcpd:string.obj
 0002:000027b8       ??_R3logic_error@std@@8    0045f7b8     libcpd:string.obj
 0002:000027c8       ??_R4logic_error@std@@6B@  0045f7c8     libcpd:string.obj
 0002:000027e0       ??_R1A@?0A@A@length_error@std@@8 0045f7e0     libcpd:string.obj
 0002:000027f8       ??_R2length_error@std@@8   0045f7f8     libcpd:string.obj
 0002:00002808       ??_R3length_error@std@@8   0045f808     libcpd:string.obj
 0002:00002818       ??_R4length_error@std@@6B@ 0045f818     libcpd:string.obj
 0002:00002830       ??_R1A@?0A@A@out_of_range@std@@8 0045f830     libcpd:string.obj
 0002:00002848       ??_R2out_of_range@std@@8   0045f848     libcpd:string.obj
 0002:00002858       ??_R3out_of_range@std@@8   0045f858     libcpd:string.obj
 0002:00002868       ??_R4out_of_range@std@@6B@ 0045f868     libcpd:string.obj
 0002:0000287c       ??_R2exception@@8          0045f87c     LIBCD:stdexcpt.obj
 0002:00002888       ??_R3exception@@8          0045f888     LIBCD:stdexcpt.obj
 0002:00002898       ??_R4exception@@6B@        0045f898     LIBCD:stdexcpt.obj
 0002:000028b0       ??_R1A@?0A@A@type_info@@8  0045f8b0     LIBCD:typinfo.obj
 0002:000028c8       ??_R2type_info@@8          0045f8c8     LIBCD:typinfo.obj
 0002:000028d0       ??_R3type_info@@8          0045f8d0     LIBCD:typinfo.obj
 0002:000028e0       ??_R4type_info@@6B@        0045f8e0     LIBCD:typinfo.obj
 0002:000030a8       __CT??_R0?AVexception@@@8??0exception@@QAE@ABV0@@Z12 004600a8     libcpd:string.obj
 0002:000030c8       __CT??_R0?AVlogic_error@std@@@8??0logic_error@std@@QAE@ABV01@@Z28 004600c8     libcpd:string.obj
 0002:000030e8       __CT??_R0?AVlength_error@std@@@8??0length_error@std@@QAE@ABV01@@Z28 004600e8     libcpd:string.obj
 0002:00003108       __CTA3?AVlength_error@std@@ 00460108     libcpd:string.obj
 0002:00003118       __TI3?AVlength_error@std@@ 00460118     libcpd:string.obj
 0002:00003178       __CTA2?AVlogic_error@std@@ 00460178     libcpd:string.obj
 0002:00003188       __TI2?AVlogic_error@std@@  00460188     libcpd:string.obj
 0002:000031e8       __CT??_R0?AVout_of_range@std@@@8??0out_of_range@std@@QAE@ABV01@@Z28 004601e8     libcpd:string.obj
 0002:00003208       __CTA3?AVout_of_range@std@@ 00460208     libcpd:string.obj
 0002:00003218       __TI3?AVout_of_range@std@@ 00460218     libcpd:string.obj
 0003:00000000       ___xc_a                    00461000     LIBCD:crt0init.obj
 0003:00000028       ___xc_z                    00461028     LIBCD:crt0init.obj
 0003:0000002c       ___xi_a                    0046102c     LIBCD:crt0init.obj
 0003:00000044       ___xi_z                    00461044     LIBCD:crt0init.obj
 0003:00000048       ___xp_a                    00461048     LIBCD:crt0init.obj
 0003:00000050       ___xp_z                    00461050     LIBCD:crt0init.obj
 0003:00000054       ___xt_a                    00461054     LIBCD:crt0init.obj
 0003:0000005c       ___xt_z                    0046105c     LIBCD:crt0init.obj
 0003:00000128       ?Sf@@3PANA                 00461128     PSINS_Demo.obj
 0003:00000158       ?TempArray@@3PANA          00461158     PSINS_Demo.obj
 0003:00000720       ?__LINE__Var@?1??InitPort@CSerialPort@itas109@@QAEHPAUHWND__@@IIDIIKIKKKKK@Z@4FA 00461720     SerialPort.obj
 0003:00000724       ?__LINE__Var@?1??WriteToPort@CSerialPort@itas109@@QAEXPADI@Z@4FA 00461724     SerialPort.obj
 0003:00000728       ?__LINE__Var@?1??WriteToPort@CSerialPort@itas109@@QAEXPAEI@Z@4FA 00461728     SerialPort.obj
 0003:0000072c       __fltused                  0046172c     LIBCD:fpinit.obj
 0003:00000730       __ldused                   00461730     LIBCD:fpinit.obj
 0003:00000734       __FPinit                   00461734     LIBCD:fpinit.obj
 0003:00000738       __FPmtinit                 00461738     LIBCD:fpinit.obj
 0003:0000073c       __FPmtterm                 0046173c     LIBCD:fpinit.obj
 0003:00000740       __NLG_Destination          00461740     LIBCD:exsup.obj
 0003:000007b0       __OP_FMODjmptab            004617b0     LIBCD:87fmod.obj
 0003:00000800       ___lc_time_curr            00461800     LIBCD:strftime.obj
 0003:00000808       ___lc_time_c               00461808     LIBCD:strftime.obj
 0003:000008c0       __crtDbgFlag               004618c0     LIBCD:dbgheap.obj
 0003:000008c8       __crtBreakAlloc            004618c8     LIBCD:dbgheap.obj
 0003:00000920       __aexit_rtn                00461920     LIBCD:crt0.obj
 0003:00000924       ___app_type                00461924     LIBCD:crt0.obj
 0003:00000928       __cfltcvt_tab              00461928     LIBCD:cmiscdat.obj
 0003:00000940       __crtAssertBusy            00461940     LIBCD:dbgrpt.obj
 0003:00000944       __CrtDbgMode               00461944     LIBCD:dbgrpt.obj
 0003:00000950       __CrtDbgFile               00461950     LIBCD:dbgrpt.obj
 0003:00000968       ___nullstring              00461968     LIBCD:output.obj
 0003:0000096c       ___wnullstring             0046196c     LIBCD:output.obj
 0003:00000970       __iob                      00461970     LIBCD:_file.obj
 0003:00000c00       ?__pUnexpected@@3P6AXXZA   00461c00     LIBCD:hooks.obj
 0003:00000c04       ?__pInconsistency@@3P6AXXZA 00461c04     LIBCD:hooks.obj
 0003:00000c10       __indefinite               00461c10     LIBCD:87disp.obj
 0003:00000c1a       __piby2                    00461c1a     LIBCD:87disp.obj
 0003:00000c2c       __cpower                   00461c2c     LIBCD:87disp.obj
 0003:00000c40       __OP_ATAN2jmptab           00461c40     LIBCD:87triga.obj
 0003:00000d68       __d_inf                    00461d68     LIBCD:util.obj
 0003:00000d70       __d_ind                    00461d70     LIBCD:util.obj
 0003:00000d78       __d_max                    00461d78     LIBCD:util.obj
 0003:00000d80       __d_min                    00461d80     LIBCD:util.obj
 0003:00000d88       __d_mzero                  00461d88     LIBCD:util.obj
 0003:00000f10       __pctype                   00461f10     LIBCD:ctype.obj
 0003:00000f14       __pwctype                  00461f14     LIBCD:ctype.obj
 0003:00000f18       __ctype                    00461f18     LIBCD:ctype.obj
 0003:0000111c       __timezone                 0046211c     LIBCD:timeset.obj
 0003:00001120       __daylight                 00462120     LIBCD:timeset.obj
 0003:00001124       __dstbias                  00462124     LIBCD:timeset.obj
 0003:000011a8       __tzname                   004621a8     LIBCD:timeset.obj
 0003:000011d0       ___badioinfo               004621d0     LIBCD:ioinit.obj
 0003:000011e4       __pfnAllocHook             004621e4     LIBCD:dbghook.obj
 0003:000011e8       ___old_small_block_heap    004621e8     LIBCD:sbheap.obj
 0003:0000320c       ___old_sbh_threshold       0046420c     LIBCD:sbheap.obj
 0003:00003210       __amblksiz                 00464210     LIBCD:heapinit.obj
 0003:00003214       ___mb_cur_max              00464214     LIBCD:nlsdata1.obj
 0003:00003218       ___decimal_point           00464218     LIBCD:nlsdata1.obj
 0003:0000321c       ___decimal_point_length    0046421c     LIBCD:nlsdata1.obj
 0003:00003320       __XcptActTab               00464320     LIBCD:winxfltr.obj
 0003:00003398       __First_FPE_Indx           00464398     LIBCD:winxfltr.obj
 0003:0000339c       __Num_FPE                  0046439c     LIBCD:winxfltr.obj
 0003:000033a0       __XcptActTabCount          004643a0     LIBCD:winxfltr.obj
 0003:000033a4       __fpecode                  004643a4     LIBCD:winxfltr.obj
 0003:00003470       __matherr_flag             00464470     LIBCD:matherr.obj
 0003:00003474       __lpdays                   00464474     LIBCD:days.obj
 0003:000034a8       __days                     004644a8     LIBCD:days.obj
 0003:00003650       __pow10pos                 00464650     LIBCD:constpow.obj
 0003:000037b0       __pow10neg                 004647b0     LIBCD:constpow.obj
 0003:00003910       ??_R0?AVexception@@@8      00464910     libcpd:string.obj
 0003:00003928       ??_R0?AVlogic_error@std@@@8 00464928     libcpd:string.obj
 0003:00003948       ??_R0?AVlength_error@std@@@8 00464948     libcpd:string.obj
 0003:00003968       ??_R0?AVout_of_range@std@@@8 00464968     libcpd:string.obj
 0003:00003988       ??_R0?AVtype_info@@@8      00464988     LIBCD:typinfo.obj
 0003:000039a0       ?__pMyUnhandledExceptionFilter@@3PAXA 004649a0     LIBCD:throw.obj
 0003:000039b0       ?psinslog@@3VCFileLog@@A   004649b0     PSINS.obj
 0003:000039c8       ?One31@@3VCVect3@@B        004649c8     PSINS.obj
 0003:000039e0       ?One33@@3VCMat3@@B         004649e0     PSINS.obj
 0003:00003a30       ?Ipos@@3VCVect3@@B         00464a30     PSINS.obj
 0003:00003a48       ?glv@@3VCGLV@@A            00464a48     PSINS.obj
 0003:00003b38       ?Onen1@@3VCVect@@B         00464b38     PSINS.obj
 0003:00003cb8       ?I33@@3VCMat3@@B           00464cb8     PSINS.obj
 0003:00003d00       ?qI@@3VCQuat@@B            00464d00     PSINS.obj
 0003:00003d20       ?O31@@3VCVect3@@B          00464d20     PSINS.obj
 0003:00003d38       ?O33@@3VCMat3@@B           00464d38     PSINS.obj
 0003:00003d80       ?O1n@@3VCVect@@B           00464d80     PSINS.obj
 0003:00003f18       ?On1@@3VCVect@@B           00464f18     PSINS.obj
 0003:00004098       ?I31Z@@3VCVect3@@B         00465098     PSINS.obj
 0003:000040c0       ?posNWPU@@3VCVect3@@B      004650c0     PSINS.obj
 0003:000040d8       ?Vrbs@@3VCVect3@@A         004650d8     PSINS.obj
 0003:000040f4       ?psinslasterror@@3HA       004650f4     PSINS.obj
 0003:000040f8       ?psinsstack0@@3HA          004650f8     PSINS.obj
 0003:000040fc       ?psinsstacksize@@3HA       004650fc     PSINS.obj
 0003:00004100       ?dirIn@CFileRdWt@@2PADA    00465100     PSINS.obj
 0003:00004200       ?dirOut@CFileRdWt@@2PADA   00465200     PSINS.obj
 0003:00004304       ___fastflag                00465304     LIBCD:fpinit.obj
 0003:00004308       __adjust_fdiv              00465308     LIBCD:fpinit.obj
 0003:0000430c       _errno                     0046530c     LIBCD:crt0dat.obj
 0003:00004310       __doserrno                 00465310     LIBCD:crt0dat.obj
 0003:00004314       __umaskval                 00465314     LIBCD:crt0dat.obj
 0003:00004318       __osver                    00465318     LIBCD:crt0dat.obj
 0003:0000431c       __winver                   0046531c     LIBCD:crt0dat.obj
 0003:00004320       __winmajor                 00465320     LIBCD:crt0dat.obj
 0003:00004324       __winminor                 00465324     LIBCD:crt0dat.obj
 0003:00004328       ___argc                    00465328     LIBCD:crt0dat.obj
 0003:0000432c       ___argv                    0046532c     LIBCD:crt0dat.obj
 0003:00004330       ___wargv                   00465330     LIBCD:crt0dat.obj
 0003:00004334       __environ                  00465334     LIBCD:crt0dat.obj
 0003:00004338       ___initenv                 00465338     LIBCD:crt0dat.obj
 0003:0000433c       __wenviron                 0046533c     LIBCD:crt0dat.obj
 0003:00004340       ___winitenv                00465340     LIBCD:crt0dat.obj
 0003:00004344       __pgmptr                   00465344     LIBCD:crt0dat.obj
 0003:00004348       __wpgmptr                  00465348     LIBCD:crt0dat.obj
 0003:0000434c       __exitflag                 0046534c     LIBCD:crt0dat.obj
 0003:00004350       __C_Termination_Done       00465350     LIBCD:crt0dat.obj
 0003:00004354       __C_Exit_Done              00465354     LIBCD:crt0dat.obj
 0003:00004394       __aenvptr                  00465394     LIBCD:crt0.obj
 0003:00004398       __wenvptr                  00465398     LIBCD:crt0.obj
 0003:0000439c       ___error_mode              0046539c     LIBCD:crt0.obj
 0003:000043b4       __stdbuf                   004653b4     LIBCD:_sftbuf.obj
 0003:000043bc       __cflush                   004653bc     LIBCD:_file.obj
 0003:000043c0       ?_pCurrentException@@3PAUEHExceptionRecord@@A 004653c0     LIBCD:frame.obj
 0003:000043c4       ?_pCurrentExContext@@3PAU_CONTEXT@@A 004653c4     LIBCD:frame.obj
 0003:000043c8       ?__pSETranslator@@3P6AXIPAU_EXCEPTION_POINTERS@@@ZA 004653c8     LIBCD:hooks.obj
 0003:000043cc       ?__pTerminate@@3P6AXXZA    004653cc     LIBCD:hooks.obj
 0003:000044c4       __newmode                  004654c4     LIBCD:_newmode.obj
 0003:000044c8       ?_pnhHeap@@3P6AHI@ZA       004654c8     LIBCD:handler.obj
 0003:000044f8       __pxcptinfoptrs            004654f8     LIBCD:winxfltr.obj
 0003:00004604       __adbgmsg                  00465604     LIBCD:crt0msg.obj
 0003:0000463c       ___lc_handle               0046563c     LIBCD:nlsdata2.obj
 0003:00004654       ___lc_codepage             00465654     LIBCD:nlsdata2.obj
 0003:00004658       ___lc_collate_cp           00465658     LIBCD:nlsdata2.obj
 0003:0000465c       __commode                  0046565c     LIBCD:ncommode.obj
 0003:00004664       __fmode                    00465664     LIBCD:txtmode.obj
 0003:0000466c       ??_B?1???id@?$ctype@G@std@@$D@@9@51 0046566c     <common>
 0003:00004670       ___mbcodepage              00465670     <common>
 0003:00004680       ___mbulinfo                00465680     <common>
 0003:0000468c       ___ismbcodepage            0046568c     <common>
 0003:000046a0       __mbcasemap                004656a0     <common>
 0003:000047a0       __mbctype                  004657a0     <common>
 0003:000048a4       ___mblcid                  004658a4     <common>
 0003:000048a8       __crtheap                  004658a8     <common>
 0003:000048ac       ___active_heap             004658ac     <common>
 0003:000048b0       ___sbh_sizeHeaderList      004658b0     <common>
 0003:000048b4       ___sbh_indGroupDefer       004658b4     <common>
 0003:000048b8       ___sbh_pHeaderScan         004658b8     <common>
 0003:000048bc       ___sbh_initialized         004658bc     <common>
 0003:000048c0       ___sbh_pHeaderDefer        004658c0     <common>
 0003:000048c4       ___sbh_cntHeaderList       004658c4     <common>
 0003:000048c8       ___sbh_pHeaderList         004658c8     <common>
 0003:000048cc       ___sbh_threshold           004658cc     <common>
 0003:000048e0       ___pioinfo                 004658e0     <common>
 0003:000049e0       __nhandle                  004659e0     <common>
 0003:000049e4       ___piob                    004659e4     <common>
 0003:00004a00       __bufin                    00465a00     <common>
 0003:00005a00       __nstream                  00466a00     <common>
 0003:00005a04       __pfnReportHook            00466a04     <common>
 0003:00005a08       __acmdln                   00466a08     <common>
 0003:00005a0c       __pfnDumpClient            00466a0c     <common>
 0003:00005a10       ___alternate_form          00466a10     <common>
 0003:00005a14       ___no_lead_zeros           00466a14     <common>
 0003:00005a18       ___env_initialized         00466a18     <common>
 0003:00005a1c       ___mbctype_initialized     00466a1c     <common>
 0003:00005a20       ___onexitend               00466a20     <common>
 0003:00005a24       ___onexitbegin             00466a24     <common>
 0003:00005a28       ??_B?1???id@?$collate@D@std@@$D@@9@51 00466a28     <common>
 0004:00000000       __IMPORT_DESCRIPTOR_KERNEL32 00467000     kernel32:KERNEL32.dll
 0004:00000014       __IMPORT_DESCRIPTOR_USER32 00467014     user32:USER32.dll
 0004:00000028       __IMPORT_DESCRIPTOR_ADVAPI32 00467028     advapi32:ADVAPI32.dll
 0004:0000003c       __NULL_IMPORT_DESCRIPTOR   0046703c     kernel32:KERNEL32.dll
 0004:00000200       __imp__RegQueryInfoKeyA@48 00467200     advapi32:ADVAPI32.dll
 0004:00000204       __imp__RegEnumValueA@32    00467204     advapi32:ADVAPI32.dll
 0004:00000208       __imp__RegCloseKey@4       00467208     advapi32:ADVAPI32.dll
 0004:0000020c       __imp__RegOpenKeyExA@20    0046720c     advapi32:ADVAPI32.dll
 0004:00000210       \177ADVAPI32_NULL_THUNK_DATA 00467210     advapi32:ADVAPI32.dll
 0004:00000214       __imp__SetCommState@8      00467214     kernel32:KERNEL32.dll
 0004:00000218       __imp__GetCommState@8      00467218     kernel32:KERNEL32.dll
 0004:0000021c       __imp__SetCommMask@8       0046721c     kernel32:KERNEL32.dll
 0004:00000220       __imp__SetCommTimeouts@8   00467220     kernel32:KERNEL32.dll
 0004:00000224       __imp__LeaveCriticalSection@4 00467224     kernel32:KERNEL32.dll
 0004:00000228       __imp__GetLastError@0      00467228     kernel32:KERNEL32.dll
 0004:0000022c       __imp__CreateFileA@28      0046722c     kernel32:KERNEL32.dll
 0004:00000230       __imp__EnterCriticalSection@4 00467230     kernel32:KERNEL32.dll
 0004:00000234       __imp__GetCommMask@8       00467234     kernel32:KERNEL32.dll
 0004:00000238       __imp__ExitThread@4        00467238     kernel32:KERNEL32.dll
 0004:0000023c       __imp__WaitForSingleObject@8 0046723c     kernel32:KERNEL32.dll
 0004:00000240       __imp__ClearCommError@12   00467240     kernel32:KERNEL32.dll
 0004:00000244       __imp__WaitCommEvent@12    00467244     kernel32:KERNEL32.dll
 0004:00000248       __imp__CreateThread@24     00467248     kernel32:KERNEL32.dll
 0004:0000024c       __imp__ResumeThread@4      0046724c     kernel32:KERNEL32.dll
 0004:00000250       __imp__SuspendThread@4     00467250     kernel32:KERNEL32.dll
 0004:00000254       __imp__PurgeComm@8         00467254     kernel32:KERNEL32.dll
 0004:00000258       __imp__FormatMessageA@28   00467258     kernel32:KERNEL32.dll
 0004:0000025c       __imp__GetOverlappedResult@16 0046725c     kernel32:KERNEL32.dll
 0004:00000260       __imp__WriteFile@20        00467260     kernel32:KERNEL32.dll
 0004:00000264       __imp__ResetEvent@4        00467264     kernel32:KERNEL32.dll
 0004:00000268       __imp__ReadFile@20         00467268     kernel32:KERNEL32.dll
 0004:0000026c       __imp__Sleep@4             0046726c     kernel32:KERNEL32.dll
 0004:00000270       __imp__SetEvent@4          00467270     kernel32:KERNEL32.dll
 0004:00000274       __imp__SetEnvironmentVariableA@8 00467274     kernel32:KERNEL32.dll
 0004:00000278       __imp__CompareStringW@24   00467278     kernel32:KERNEL32.dll
 0004:0000027c       __imp__CompareStringA@24   0046727c     kernel32:KERNEL32.dll
 0004:00000280       __imp__SetEndOfFile@4      00467280     kernel32:KERNEL32.dll
 0004:00000284       __imp__GetStringTypeW@16   00467284     kernel32:KERNEL32.dll
 0004:00000288       __imp__GetStringTypeA@20   00467288     kernel32:KERNEL32.dll
 0004:0000028c       __imp__SetStdHandle@8      0046728c     kernel32:KERNEL32.dll
 0004:00000290       __imp__IsBadCodePtr@4      00467290     kernel32:KERNEL32.dll
 0004:00000294       __imp__CloseHandle@4       00467294     kernel32:KERNEL32.dll
 0004:00000298       __imp__DeleteCriticalSection@4 00467298     kernel32:KERNEL32.dll
 0004:0000029c       __imp__CreateEventA@16     0046729c     kernel32:KERNEL32.dll
 0004:000002a0       __imp__LocalFree@4         004672a0     kernel32:KERNEL32.dll
 0004:000002a4       __imp__InitializeCriticalSection@4 004672a4     kernel32:KERNEL32.dll
 0004:000002a8       __imp__ExitProcess@4       004672a8     kernel32:KERNEL32.dll
 0004:000002ac       __imp__TerminateProcess@8  004672ac     kernel32:KERNEL32.dll
 0004:000002b0       __imp__GetCurrentProcess@0 004672b0     kernel32:KERNEL32.dll
 0004:000002b4       __imp__RtlUnwind@16        004672b4     kernel32:KERNEL32.dll
 0004:000002b8       __imp__GetSystemTimeAsFileTime@4 004672b8     kernel32:KERNEL32.dll
 0004:000002bc       __imp__GetTimeZoneInformation@4 004672bc     kernel32:KERNEL32.dll
 0004:000002c0       __imp__GetSystemTime@4     004672c0     kernel32:KERNEL32.dll
 0004:000002c4       __imp__GetLocalTime@4      004672c4     kernel32:KERNEL32.dll
 0004:000002c8       __imp__FindFirstFileA@8    004672c8     kernel32:KERNEL32.dll
 0004:000002cc       __imp__FindNextFileA@8     004672cc     kernel32:KERNEL32.dll
 0004:000002d0       __imp__FindClose@4         004672d0     kernel32:KERNEL32.dll
 0004:000002d4       __imp__FileTimeToSystemTime@8 004672d4     kernel32:KERNEL32.dll
 0004:000002d8       __imp__FileTimeToLocalFileTime@8 004672d8     kernel32:KERNEL32.dll
 0004:000002dc       __imp__IsBadWritePtr@8     004672dc     kernel32:KERNEL32.dll
 0004:000002e0       __imp__IsBadReadPtr@8      004672e0     kernel32:KERNEL32.dll
 0004:000002e4       __imp__HeapValidate@12     004672e4     kernel32:KERNEL32.dll
 0004:000002e8       __imp__GetModuleFileNameA@12 004672e8     kernel32:KERNEL32.dll
 0004:000002ec       __imp__GetCommandLineA@0   004672ec     kernel32:KERNEL32.dll
 0004:000002f0       __imp__GetVersion@0        004672f0     kernel32:KERNEL32.dll
 0004:000002f4       __imp__GetProcAddress@8    004672f4     kernel32:KERNEL32.dll
 0004:000002f8       __imp__GetModuleHandleA@4  004672f8     kernel32:KERNEL32.dll
 0004:000002fc       __imp__DebugBreak@0        004672fc     kernel32:KERNEL32.dll
 0004:00000300       __imp__GetStdHandle@4      00467300     kernel32:KERNEL32.dll
 0004:00000304       __imp__InterlockedDecrement@4 00467304     kernel32:KERNEL32.dll
 0004:00000308       __imp__OutputDebugStringA@4 00467308     kernel32:KERNEL32.dll
 0004:0000030c       __imp__LoadLibraryA@4      0046730c     kernel32:KERNEL32.dll
 0004:00000310       __imp__InterlockedIncrement@4 00467310     kernel32:KERNEL32.dll
 0004:00000314       __imp__RaiseException@16   00467314     kernel32:KERNEL32.dll
 0004:00000318       __imp__WideCharToMultiByte@32 00467318     kernel32:KERNEL32.dll
 0004:0000031c       __imp__SetFilePointer@16   0046731c     kernel32:KERNEL32.dll
 0004:00000320       __imp__SetHandleCount@4    00467320     kernel32:KERNEL32.dll
 0004:00000324       __imp__GetFileType@4       00467324     kernel32:KERNEL32.dll
 0004:00000328       __imp__GetStartupInfoA@4   00467328     kernel32:KERNEL32.dll
 0004:0000032c       __imp__FlushFileBuffers@4  0046732c     kernel32:KERNEL32.dll
 0004:00000330       __imp__HeapAlloc@12        00467330     kernel32:KERNEL32.dll
 0004:00000334       __imp__HeapReAlloc@16      00467334     kernel32:KERNEL32.dll
 0004:00000338       __imp__HeapFree@12         00467338     kernel32:KERNEL32.dll
 0004:0000033c       __imp__VirtualFree@12      0046733c     kernel32:KERNEL32.dll
 0004:00000340       __imp__VirtualAlloc@16     00467340     kernel32:KERNEL32.dll
 0004:00000344       __imp__GetEnvironmentVariableA@12 00467344     kernel32:KERNEL32.dll
 0004:00000348       __imp__GetVersionExA@4     00467348     kernel32:KERNEL32.dll
 0004:0000034c       __imp__HeapDestroy@4       0046734c     kernel32:KERNEL32.dll
 0004:00000350       __imp__HeapCreate@12       00467350     kernel32:KERNEL32.dll
 0004:00000354       __imp__GetCPInfo@8         00467354     kernel32:KERNEL32.dll
 0004:00000358       __imp__GetACP@0            00467358     kernel32:KERNEL32.dll
 0004:0000035c       __imp__GetOEMCP@0          0046735c     kernel32:KERNEL32.dll
 0004:00000360       __imp__MultiByteToWideChar@24 00467360     kernel32:KERNEL32.dll
 0004:00000364       __imp__LCMapStringA@24     00467364     kernel32:KERNEL32.dll
 0004:00000368       __imp__LCMapStringW@24     00467368     kernel32:KERNEL32.dll
 0004:0000036c       __imp__SetConsoleCtrlHandler@8 0046736c     kernel32:KERNEL32.dll
 0004:00000370       __imp__UnhandledExceptionFilter@4 00467370     kernel32:KERNEL32.dll
 0004:00000374       __imp__FreeEnvironmentStringsA@4 00467374     kernel32:KERNEL32.dll
 0004:00000378       __imp__FreeEnvironmentStringsW@4 00467378     kernel32:KERNEL32.dll
 0004:0000037c       __imp__GetEnvironmentStrings@0 0046737c     kernel32:KERNEL32.dll
 0004:00000380       __imp__GetEnvironmentStringsW@0 00467380     kernel32:KERNEL32.dll
 0004:00000384       __imp__SetUnhandledExceptionFilter@4 00467384     kernel32:KERNEL32.dll
 0004:00000388       __imp__GetFileAttributesA@4 00467388     kernel32:KERNEL32.dll
 0004:0000038c       \177KERNEL32_NULL_THUNK_DATA 0046738c     kernel32:KERNEL32.dll
 0004:00000390       __imp__PeekMessageA@20     00467390     user32:USER32.dll
 0004:00000394       __imp__TranslateMessage@4  00467394     user32:USER32.dll
 0004:00000398       __imp__DispatchMessageA@4  00467398     user32:USER32.dll
 0004:0000039c       __imp__PostMessageA@16     0046739c     user32:USER32.dll
 0004:000003a0       __imp__MsgWaitForMultipleObjects@20 004673a0     user32:USER32.dll
 0004:000003a4       __imp__SendMessageA@16     004673a4     user32:USER32.dll
 0004:000003a8       __imp__MessageBoxA@16      004673a8     user32:USER32.dll
 0004:000003ac       \177USER32_NULL_THUNK_DATA 004673ac     user32:USER32.dll

 entry point at        0001:000456a0

 Static symbols

 0001:0003ea70       _$E22                      0043fa70 f   SerialPort.obj
 0001:0003eaf0       _$E21                      0043faf0 f   SerialPort.obj
 0001:00000bb0       _$E4                       00401bb0 f   PSINS.obj
 0001:00000be0       _$E3                       00401be0 f   PSINS.obj
 0001:00000ca0       _$E7                       00401ca0 f   PSINS.obj
 0001:00000cd0       _$E6                       00401cd0 f   PSINS.obj
 0001:00000d20       _$E10                      00401d20 f   PSINS.obj
 0001:00000d50       _$E9                       00401d50 f   PSINS.obj
 0001:00000df0       _$E13                      00401df0 f   PSINS.obj
 0001:00000e20       _$E12                      00401e20 f   PSINS.obj
 0001:00000ea0       _$E16                      00401ea0 f   PSINS.obj
 0001:00000ed0       _$E15                      00401ed0 f   PSINS.obj
 0001:00000f10       _$E21                      00401f10 f   PSINS.obj
 0001:00000f50       _$E18                      00401f50 f   PSINS.obj
 0001:00000fb0       _$E20                      00401fb0 f   PSINS.obj
 0001:00000ff0       _$E19                      00401ff0 f   PSINS.obj
 0001:00001030       _$E26                      00402030 f   PSINS.obj
 0001:00001070       _$E23                      00402070 f   PSINS.obj
 0001:000010b0       _$E25                      004020b0 f   PSINS.obj
 0001:000010f0       _$E24                      004020f0 f   PSINS.obj
 0001:00008fa0       ?maxrt4@@YANNNN@Z          00409fa0 f   PSINS.obj
 0001:00059b70       _findenv                   0045ab70 f   LIBCD:setenv.obj
 0001:00059bf0       _copy_environ              0045abf0 f   LIBCD:setenv.obj
 0001:00059840       _strncnt                   0045a840 f   LIBCD:a_cmp.obj
 0001:00058a59       hard                       00459a59 f   LIBCD:llmul.obj
 0001:000574ba       okay                       004584ba f   LIBCD:strncmp.obj
 0001:000574cd       firstbig                   004584cd f   LIBCD:strncmp.obj
 0001:000574cf       lastbig                    004584cf f   LIBCD:strncmp.obj
 0001:000574d1       toend                      004584d1 f   LIBCD:strncmp.obj
 0001:00057438       findnext                   00458438 f   LIBCD:strstr.obj
 0001:00057449       loop_start                 00458449 f   LIBCD:strstr.obj
 0001:0005744c       in_loop                    0045844c f   LIBCD:strstr.obj
 0001:00057454       not_found                  00458454 f   LIBCD:strstr.obj
 0001:0005745a       first_char_found           0045845a f   LIBCD:strstr.obj
 0001:00057461       two_first_chars_equal      00458461 f   LIBCD:strstr.obj
 0001:00057464       compare_loop               00458464 f   LIBCD:strstr.obj
 0001:00057487       strchr_call                00458487 f   LIBCD:strstr.obj
 0001:00057493       match                      00458493 f   LIBCD:strstr.obj
 0001:0005749a       empty_str2                 0045849a f   LIBCD:strstr.obj
 0001:00057350       _$$$00001                  00458350 f   LIBCD:strchr.obj
 0001:00057378       str_misaligned             00458378 f   LIBCD:strchr.obj
 0001:0005738b       main_loop_start            0045838b f   LIBCD:strchr.obj
 0001:00057396       main_loop                  00458396 f   LIBCD:strchr.obj
 0001:000573d2       retnull                    004583d2 f   LIBCD:strchr.obj
 0001:000573d4       retnull_bx                 004583d4 f   LIBCD:strchr.obj
 0001:000573d8       chr_is_found               004583d8 f   LIBCD:strchr.obj
 0001:00057400       byte_3                     00458400 f   LIBCD:strchr.obj
 0001:00057407       byte_2                     00458407 f   LIBCD:strchr.obj
 0001:0005740e       byte_1                     0045840e f   LIBCD:strchr.obj
 0001:00057415       byte_0                     00458415 f   LIBCD:strchr.obj
 0001:00057350       found_bx                   00458350 f   LIBCD:strchr.obj
 0001:00057000       _strtoxl                   00458000 f   LIBCD:strtol.obj
 0001:000557d1       L1                         004567d1 f   LIBCD:ullrem.obj
 0001:000557df       L3                         004567df f   LIBCD:ullrem.obj
 0001:0005580a       L4                         0045680a f   LIBCD:ullrem.obj
 0001:00055812       L5                         00456812 f   LIBCD:ullrem.obj
 0001:00055821       L2                         00456821 f   LIBCD:ullrem.obj
 0001:00054530       __abstract_cw              00455530 f   LIBCD:ieee87.obj
 0001:000546b0       __hw_cw                    004556b0 f   LIBCD:ieee87.obj
 0001:00054810       __abstract_sw              00455810 f   LIBCD:ieee87.obj
 0001:00053b70       _parse_cmdline             00454b70 f   LIBCD:stdargv.obj
 0001:000538e0       _xcptlookup                004548e0 f   LIBCD:winxfltr.obj
 0001:00053414       src_misaligned             00454414 f   LIBCD:strncpy.obj
 0001:00053430       tail_loop_start            00454430 f   LIBCD:strncpy.obj
 0001:00053435       copy_tail_loop             00454435 f   LIBCD:strncpy.obj
 0001:00053442       fill_tail_end1             00454442 f   LIBCD:strncpy.obj
 0001:0005344a       align_dest                 0045444a f   LIBCD:strncpy.obj
 0001:00053452       dest_align_loop            00454452 f   LIBCD:strncpy.obj
 0001:00053464       dest_align_loop_end        00454464 f   LIBCD:strncpy.obj
 0001:0005346b       finish_loop                0045446b f   LIBCD:strncpy.obj
 0001:0005346e       fill_tail_zero_bytes       0045446e f   LIBCD:strncpy.obj
 0001:00053473       finish                     00454473 f   LIBCD:strncpy.obj
 0001:00053479       main_loop                  00454479 f   LIBCD:strncpy.obj
 0001:00053481       main_loop_entrance         00454481 f   LIBCD:strncpy.obj
 0001:000534b7       byte_2                     004544b7 f   LIBCD:strncpy.obj
 0001:000534c1       byte_1                     004544c1 f   LIBCD:strncpy.obj
 0001:000534cb       byte_0                     004544cb f   LIBCD:strncpy.obj
 0001:000534cf       fill_with_EOS_dwords       004544cf f   LIBCD:strncpy.obj
 0001:000534d7       fill_dwords_with_EOS       004544d7 f   LIBCD:strncpy.obj
 0001:000534d9       fill_with_EOS_loop         004544d9 f   LIBCD:strncpy.obj
 0001:000534e1       fill_tail                  004544e1 f   LIBCD:strncpy.obj
 0001:000534e6       fill_tail_end              004544e6 f   LIBCD:strncpy.obj
 0001:000532db       front_misaligned           004542db f   LIBCD:strncat.obj
 0001:000532ea       find_end_of_front_string_loop 004542ea f   LIBCD:strncat.obj
 0001:0005331b       start_byte_3               0045431b f   LIBCD:strncat.obj
 0001:0005331e       start_byte_2               0045431e f   LIBCD:strncat.obj
 0001:00053323       start_byte_1               00454323 f   LIBCD:strncat.obj
 0001:00053328       start_byte_0               00454328 f   LIBCD:strncat.obj
 0001:0005332b       copy_start                 0045432b f   LIBCD:strncat.obj
 0001:00053340       back_misaligned            00454340 f   LIBCD:strncat.obj
 0001:0005335c       tail_loop_start            0045435c f   LIBCD:strncat.obj
 0001:00053363       tail_loop                  00454363 f   LIBCD:strncat.obj
 0001:00053370       empty_counter              00454370 f   LIBCD:strncat.obj
 0001:00053372       finish1                    00454372 f   LIBCD:strncat.obj
 0001:00053374       finish                     00454374 f   LIBCD:strncat.obj
 0001:0005337a       byte_0                     0045437a f   LIBCD:strncat.obj
 0001:00053384       main_loop                  00454384 f   LIBCD:strncat.obj
 0001:0005338c       main_loop_entrance         0045438c f   LIBCD:strncat.obj
 0001:000533be       byte_3                     004543be f   LIBCD:strncat.obj
 0001:000533c8       byte_2                     004543c8 f   LIBCD:strncat.obj
 0001:000533d8       byte_1                     004543d8 f   LIBCD:strncat.obj
 0001:00053020       _xtoa                      00454020 f   LIBCD:xtoa.obj
 0001:000531a0       _x64toa@20                 004541a0 f   LIBCD:xtoa.obj
 0001:00052c80       _ctrlevent_capture@4       00453c80 f   LIBCD:winsig.obj
 0001:00052eb0       _siglookup                 00453eb0 f   LIBCD:winsig.obj
 0001:00052a70       _strncnt                   00453a70 f   LIBCD:a_map.obj
 0001:000522a0       _getSystemCP               004532a0 f   LIBCD:mbctype.obj
 0001:00052300       _CPtoLCID                  00453300 f   LIBCD:mbctype.obj
 0001:00052380       _setSBCS                   00453380 f   LIBCD:mbctype.obj
 0001:00052400       _setSBUpLow                00453400 f   LIBCD:mbctype.obj
 0001:0004d9b0       __hextodec                 0044e9b0 f   LIBCD:input.obj
 0001:0004da10       __inc                      0044ea10 f   LIBCD:input.obj
 0001:0004da70       __un_inc                   0044ea70 f   LIBCD:input.obj
 0001:0004da90       __whiteout                 0044ea90 f   LIBCD:input.obj
 0001:0004b64c       chk_null                   0044c64c f   LIBCD:stricmp.obj
 0001:0004b67e       done                       0044c67e f   LIBCD:stricmp.obj
 0001:0004b683       notclocale                 0044c683 f   LIBCD:stricmp.obj
 0001:0004b68c       chk_null2                  0044c68c f   LIBCD:stricmp.obj
 0001:0004b6b7       done2                      0044c6b7 f   LIBCD:stricmp.obj
 0001:0004b6b7       doret                      0044c6b7 f   LIBCD:stricmp.obj
 0001:0004b430       _cvtdate                   0044c430 f   LIBCD:tzset.obj
 0001:0004a114       label0                     0044b114 f   LIBCD:adj_fdiv.obj
 0001:0004a11a       label1                     0044b11a f   LIBCD:adj_fdiv.obj
 0001:0004a11f       label2                     0044b11f f   LIBCD:adj_fdiv.obj
 0001:0004a125       label3                     0044b125 f   LIBCD:adj_fdiv.obj
 0001:0004a12a       label4                     0044b12a f   LIBCD:adj_fdiv.obj
 0001:0004a130       label5                     0044b130 f   LIBCD:adj_fdiv.obj
 0001:0004a136       label6                     0044b136 f   LIBCD:adj_fdiv.obj
 0001:0004a13c       label7                     0044b13c f   LIBCD:adj_fdiv.obj
 0001:0004a142       label8                     0044b142 f   LIBCD:adj_fdiv.obj
 0001:0004a15e       label9                     0044b15e f   LIBCD:adj_fdiv.obj
 0001:0004a163       label10                    0044b163 f   LIBCD:adj_fdiv.obj
 0001:0004a179       label11                    0044b179 f   LIBCD:adj_fdiv.obj
 0001:0004a17e       label12                    0044b17e f   LIBCD:adj_fdiv.obj
 0001:0004a19a       label13                    0044b19a f   LIBCD:adj_fdiv.obj
 0001:0004a1aa       label14                    0044b1aa f   LIBCD:adj_fdiv.obj
 0001:0004a1be       label15                    0044b1be f   LIBCD:adj_fdiv.obj
 0001:0004a1ce       label16                    0044b1ce f   LIBCD:adj_fdiv.obj
 0001:0004a1ee       label17                    0044b1ee f   LIBCD:adj_fdiv.obj
 0001:0004a1f3       label18                    0044b1f3 f   LIBCD:adj_fdiv.obj
 0001:0004a20d       label19                    0044b20d f   LIBCD:adj_fdiv.obj
 0001:0004a212       label20                    0044b212 f   LIBCD:adj_fdiv.obj
 0001:0004a232       label21                    0044b232 f   LIBCD:adj_fdiv.obj
 0001:0004a246       label22                    0044b246 f   LIBCD:adj_fdiv.obj
 0001:0004a25e       label23                    0044b25e f   LIBCD:adj_fdiv.obj
 0001:0004a272       label24                    0044b272 f   LIBCD:adj_fdiv.obj
 0001:0004a292       label25                    0044b292 f   LIBCD:adj_fdiv.obj
 0001:0004a297       label26                    0044b297 f   LIBCD:adj_fdiv.obj
 0001:0004a2b1       label27                    0044b2b1 f   LIBCD:adj_fdiv.obj
 0001:0004a2b6       label28                    0044b2b6 f   LIBCD:adj_fdiv.obj
 0001:0004a2d6       label29                    0044b2d6 f   LIBCD:adj_fdiv.obj
 0001:0004a2ea       label30                    0044b2ea f   LIBCD:adj_fdiv.obj
 0001:0004a302       label31                    0044b302 f   LIBCD:adj_fdiv.obj
 0001:0004a316       label32                    0044b316 f   LIBCD:adj_fdiv.obj
 0001:0004a336       label33                    0044b336 f   LIBCD:adj_fdiv.obj
 0001:0004a33b       label34                    0044b33b f   LIBCD:adj_fdiv.obj
 0001:0004a355       label35                    0044b355 f   LIBCD:adj_fdiv.obj
 0001:0004a35a       label36                    0044b35a f   LIBCD:adj_fdiv.obj
 0001:0004a37a       label37                    0044b37a f   LIBCD:adj_fdiv.obj
 0001:0004a38e       label38                    0044b38e f   LIBCD:adj_fdiv.obj
 0001:0004a3a6       label39                    0044b3a6 f   LIBCD:adj_fdiv.obj
 0001:0004a3ba       label40                    0044b3ba f   LIBCD:adj_fdiv.obj
 0001:0004a3da       label41                    0044b3da f   LIBCD:adj_fdiv.obj
 0001:0004a3df       label42                    0044b3df f   LIBCD:adj_fdiv.obj
 0001:0004a3f9       label43                    0044b3f9 f   LIBCD:adj_fdiv.obj
 0001:0004a3fe       label44                    0044b3fe f   LIBCD:adj_fdiv.obj
 0001:0004a41e       label45                    0044b41e f   LIBCD:adj_fdiv.obj
 0001:0004a432       label46                    0044b432 f   LIBCD:adj_fdiv.obj
 0001:0004a44a       label47                    0044b44a f   LIBCD:adj_fdiv.obj
 0001:0004a45e       label48                    0044b45e f   LIBCD:adj_fdiv.obj
 0001:0004a47e       label49                    0044b47e f   LIBCD:adj_fdiv.obj
 0001:0004a483       label50                    0044b483 f   LIBCD:adj_fdiv.obj
 0001:0004a49d       label51                    0044b49d f   LIBCD:adj_fdiv.obj
 0001:0004a4a2       label52                    0044b4a2 f   LIBCD:adj_fdiv.obj
 0001:0004a4c2       label53                    0044b4c2 f   LIBCD:adj_fdiv.obj
 0001:0004a4d6       label54                    0044b4d6 f   LIBCD:adj_fdiv.obj
 0001:0004a4ee       label55                    0044b4ee f   LIBCD:adj_fdiv.obj
 0001:0004a502       label56                    0044b502 f   LIBCD:adj_fdiv.obj
 0001:0004a522       label57                    0044b522 f   LIBCD:adj_fdiv.obj
 0001:0004a527       label58                    0044b527 f   LIBCD:adj_fdiv.obj
 0001:0004a541       label59                    0044b541 f   LIBCD:adj_fdiv.obj
 0001:0004a546       label60                    0044b546 f   LIBCD:adj_fdiv.obj
 0001:0004a566       label61                    0044b566 f   LIBCD:adj_fdiv.obj
 0001:0004a57a       label62                    0044b57a f   LIBCD:adj_fdiv.obj
 0001:0004a592       label63                    0044b592 f   LIBCD:adj_fdiv.obj
 0001:00049b80       __get_fname                0044ab80 f   LIBCD:fpexcept.obj
 0001:00048d0c       fFATN2                     00449d0c f   LIBCD:87triga.obj
 0001:00048d82       _rtforatnby0               00449d82 f   LIBCD:87triga.obj
 0001:00048d65       _rtforatn20                00449d65 f   LIBCD:87triga.obj
 0001:00048920       MORE32                     00449920 f   LIBCD:llshl.obj
 0001:0004892a       RETZERO                    0044992a f   LIBCD:llshl.obj
 0001:000488c2       L1                         004498c2 f   LIBCD:ulldiv.obj
 0001:000488d0       L3                         004498d0 f   LIBCD:ulldiv.obj
 0001:000488fe       L4                         004498fe f   LIBCD:ulldiv.obj
 0001:000488ff       L5                         004498ff f   LIBCD:ulldiv.obj
 0001:00048903       L2                         00449903 f   LIBCD:ulldiv.obj
 0001:00047ba0       ?FindHandler@@YAXPAUEHExceptionRecord@@PAUEHRegistrationNode@@PAU_CONTEXT@@PAXPBU_s_FuncInfo@@EH1@Z 00448ba0 f   LIBCD:frame.obj
 0001:00047e40       ?FindHandlerForForeignException@@YAXPAUEHExceptionRecord@@PAUEHRegistrationNode@@PAU_CONTEXT@@PAXPBU_s_FuncInfo@@HH1@Z 00448e40 f   LIBCD:frame.obj
 0001:00047f60       ?TypeMatch@@YAHPBU_s_HandlerType@@PBU_s_CatchableType@@PBU_s_ThrowInfo@@@Z 00448f60 f   LIBCD:frame.obj
 0001:00048120       ?FrameUnwindFilter@@YAHPAU_EXCEPTION_POINTERS@@@Z 00449120 f   LIBCD:frame.obj
 0001:00048150       ?CatchIt@@YAXPAUEHExceptionRecord@@PAUEHRegistrationNode@@PAU_CONTEXT@@PAXPBU_s_FuncInfo@@PBU_s_HandlerType@@PBU_s_CatchableType@@PBU_s_TryBlockMapEntry@@H1E@Z 00449150 f   LIBCD:frame.obj
 0001:00048210       ?CallCatchBlock@@YAPAXPAUEHExceptionRecord@@PAUEHRegistrationNode@@PAU_CONTEXT@@PBU_s_FuncInfo@@PAXHK@Z 00449210 f   LIBCD:frame.obj
 0001:00048360       ?ExFilterRethrow@@YAHPAU_EXCEPTION_POINTERS@@@Z 00449360 f   LIBCD:frame.obj
 0001:000483b0       ?BuildCatchObject@@YAXPAUEHExceptionRecord@@PAUEHRegistrationNode@@PBU_s_HandlerType@@PBU_s_CatchableType@@@Z 004493b0 f   LIBCD:frame.obj
 0001:000486c0       ?AdjustPointer@@YAPAXPAXABUPMD@@@Z 004496c0 f   LIBCD:frame.obj
 0001:000477f0       _write_char                004487f0 f   LIBCD:output.obj
 0001:00047870       _write_multi_char          00448870 f   LIBCD:output.obj
 0001:000478b0       _write_string              004488b0 f   LIBCD:output.obj
 0001:00047900       _get_int_arg               00448900 f   LIBCD:output.obj
 0001:00047920       _get_int64_arg             00448920 f   LIBCD:output.obj
 0001:00047940       _get_short_arg             00448940 f   LIBCD:output.obj
 0001:00046500       _CrtMessageWindow          00447500 f   LIBCD:dbgrpt.obj
 0001:00045f60       __cftoe_g                  00446f60 f   LIBCD:cvt.obj
 0001:00045fa0       __cftof_g                  00446fa0 f   LIBCD:cvt.obj
 0001:00046030       __shift                    00447030 f   LIBCD:cvt.obj
 0001:00045800       _fast_error_exit           00446800 f   LIBCD:crt0.obj
 0001:000453d0       LeadUp1                    004463d0 f   LIBCD:memmove.obj
 0001:000453fc       LeadUp2                    004463fc f   LIBCD:memmove.obj
 0001:00045420       LeadUp3                    00446420 f   LIBCD:memmove.obj
 0001:0004549f       UnwindUp0                  0044649f f   LIBCD:memmove.obj
 0001:0004548c       UnwindUp1                  0044648c f   LIBCD:memmove.obj
 0001:00045484       UnwindUp2                  00446484 f   LIBCD:memmove.obj
 0001:0004547c       UnwindUp3                  0044647c f   LIBCD:memmove.obj
 0001:00045474       UnwindUp4                  00446474 f   LIBCD:memmove.obj
 0001:0004546c       UnwindUp5                  0044646c f   LIBCD:memmove.obj
 0001:00045464       UnwindUp6                  00446464 f   LIBCD:memmove.obj
 0001:0004545c       UnwindUp7                  0044645c f   LIBCD:memmove.obj
 0001:000454b8       TrailUp0                   004464b8 f   LIBCD:memmove.obj
 0001:000454c0       TrailUp1                   004464c0 f   LIBCD:memmove.obj
 0001:000454cc       TrailUp2                   004464cc f   LIBCD:memmove.obj
 0001:000454e0       TrailUp3                   004464e0 f   LIBCD:memmove.obj
 0001:00045558       LeadDown1                  00446558 f   LIBCD:memmove.obj
 0001:00045578       LeadDown2                  00446578 f   LIBCD:memmove.obj
 0001:000455a0       LeadDown3                  004465a0 f   LIBCD:memmove.obj
 0001:000455f4       UnwindDown7                004465f4 f   LIBCD:memmove.obj
 0001:000455fc       UnwindDown6                004465fc f   LIBCD:memmove.obj
 0001:00045604       UnwindDown5                00446604 f   LIBCD:memmove.obj
 0001:0004560c       UnwindDown4                0044660c f   LIBCD:memmove.obj
 0001:00045614       UnwindDown3                00446614 f   LIBCD:memmove.obj
 0001:0004561c       UnwindDown2                0044661c f   LIBCD:memmove.obj
 0001:00045624       UnwindDown1                00446624 f   LIBCD:memmove.obj
 0001:00045637       UnwindDown0                00446637 f   LIBCD:memmove.obj
 0001:00045650       TrailDown0                 00446650 f   LIBCD:memmove.obj
 0001:00045658       TrailDown1                 00446658 f   LIBCD:memmove.obj
 0001:00045668       TrailDown2                 00446668 f   LIBCD:memmove.obj
 0001:0004567c       TrailDown3                 0044667c f   LIBCD:memmove.obj
 0001:00045380       CopyUp                     00446380 f   LIBCD:memmove.obj
 0001:0004539c       CopyLeadUp                 0044639c f   LIBCD:memmove.obj
 0001:000453b4       ByteCopyUp                 004463b4 f   LIBCD:memmove.obj
 0001:000453bc       CopyUnwindUp               004463bc f   LIBCD:memmove.obj
 0001:000454f8       CopyDown                   004464f8 f   LIBCD:memmove.obj
 0001:00045520       CopyUnwindDown             00446520 f   LIBCD:memmove.obj
 0001:0004552c       CopyLeadDown               0044652c f   LIBCD:memmove.obj
 0001:00045544       ByteCopyDown               00446544 f   LIBCD:memmove.obj
 0001:00045330       ?ArrayUnwindFilter@@YAHPAU_EXCEPTION_POINTERS@@@Z 00446330 f   LIBCD:ehvecdtr.obj
 0001:000432e0       _realloc_help              004442e0 f   LIBCD:dbgheap.obj
 0001:00043eb0       _CheckBytes                00444eb0 f   LIBCD:dbgheap.obj
 0001:00044af0       __printMemBlockData        00445af0 f   LIBCD:dbgheap.obj
 0001:00042d00       _flsall                    00443d00 f   LIBCD:fflush.obj
 0001:000429a0       dodwords                   004439a0 f   LIBCD:strcmp.obj
 0001:000429d0       doneeq                     004439d0 f   LIBCD:strcmp.obj
 0001:000429d4       donene                     004439d4 f   LIBCD:strcmp.obj
 0001:000429dc       dopartial                  004439dc f   LIBCD:strcmp.obj
 0001:000429f8       doword                     004439f8 f   LIBCD:strcmp.obj
 0001:000420dd       dest_misaligned            004430dd f   LIBCD:strcat.obj
 0001:000420ec       find_end_of_dest_string_loop 004430ec f   LIBCD:strcat.obj
 0001:0004211f       start_byte_3               0044311f f   LIBCD:strcat.obj
 0001:00042124       start_byte_2               00443124 f   LIBCD:strcat.obj
 0001:00042129       start_byte_1               00443129 f   LIBCD:strcat.obj
 0001:0004212e       start_byte_0               0044312e f   LIBCD:strcat.obj
 0001:0004213d       src_misaligned             0044313d f   LIBCD:strcat.obj
 0001:00042151       main_loop                  00443151 f   LIBCD:strcat.obj
 0001:00042156       main_loop_entrance         00443156 f   LIBCD:strcat.obj
 0001:0004218a       byte_3                     0044318a f   LIBCD:strcat.obj
 0001:00042192       byte_2                     00443192 f   LIBCD:strcat.obj
 0001:0004219f       byte_1                     0044319f f   LIBCD:strcat.obj
 0001:000421a8       byte_0                     004431a8 f   LIBCD:strcat.obj
 0001:00042131       copy_start                 00443131 f   LIBCD:strcat.obj
 0001:0004196c       str_misaligned             0044296c f   LIBCD:strlen.obj
 0001:00041980       main_loop                  00442980 f   LIBCD:strlen.obj
 0001:000419b3       byte_3                     004429b3 f   LIBCD:strlen.obj
 0001:000419bd       byte_2                     004429bd f   LIBCD:strlen.obj
 0001:000419c7       byte_1                     004429c7 f   LIBCD:strlen.obj
 0001:000419d1       byte_0                     004429d1 f   LIBCD:strlen.obj
 0001:000407e0       __expandtime               004417e0 f   LIBCD:strftime.obj
 0001:00040e00       __store_str                00441e00 f   LIBCD:strftime.obj
 0001:00040e50       __store_num                00441e50 f   LIBCD:strftime.obj
 0001:00040f00       __store_number             00441f00 f   LIBCD:strftime.obj
 0001:00040fb0       __store_winword            00441fb0 f   LIBCD:strftime.obj
 0001:00040084       fFMOD                      00441084 f   LIBCD:87fmod.obj
 0001:0003ff63       adjust_loop                00440f63 f   LIBCD:memset.obj
 0001:0003ff69       dwords                     00440f69 f   LIBCD:memset.obj
 0001:0003ff83       main_loop_tail             00440f83 f   LIBCD:memset.obj
 0001:0003ff87       tail                       00440f87 f   LIBCD:memset.obj
 0001:0003ff8d       finish                     00440f8d f   LIBCD:memset.obj
 0001:0003ff93       toend                      00440f93 f   LIBCD:memset.obj
 0001:0003fbc0       LeadUp1                    00440bc0 f   LIBCD:memcpy.obj
 0001:0003fbec       LeadUp2                    00440bec f   LIBCD:memcpy.obj
 0001:0003fc10       LeadUp3                    00440c10 f   LIBCD:memcpy.obj
 0001:0003fc8f       UnwindUp0                  00440c8f f   LIBCD:memcpy.obj
 0001:0003fc7c       UnwindUp1                  00440c7c f   LIBCD:memcpy.obj
 0001:0003fc74       UnwindUp2                  00440c74 f   LIBCD:memcpy.obj
 0001:0003fc6c       UnwindUp3                  00440c6c f   LIBCD:memcpy.obj
 0001:0003fc64       UnwindUp4                  00440c64 f   LIBCD:memcpy.obj
 0001:0003fc5c       UnwindUp5                  00440c5c f   LIBCD:memcpy.obj
 0001:0003fc54       UnwindUp6                  00440c54 f   LIBCD:memcpy.obj
 0001:0003fc4c       UnwindUp7                  00440c4c f   LIBCD:memcpy.obj
 0001:0003fca8       TrailUp0                   00440ca8 f   LIBCD:memcpy.obj
 0001:0003fcb0       TrailUp1                   00440cb0 f   LIBCD:memcpy.obj
 0001:0003fcbc       TrailUp2                   00440cbc f   LIBCD:memcpy.obj
 0001:0003fcd0       TrailUp3                   00440cd0 f   LIBCD:memcpy.obj
 0001:0003fd48       LeadDown1                  00440d48 f   LIBCD:memcpy.obj
 0001:0003fd68       LeadDown2                  00440d68 f   LIBCD:memcpy.obj
 0001:0003fd90       LeadDown3                  00440d90 f   LIBCD:memcpy.obj
 0001:0003fde4       UnwindDown7                00440de4 f   LIBCD:memcpy.obj
 0001:0003fdec       UnwindDown6                00440dec f   LIBCD:memcpy.obj
 0001:0003fdf4       UnwindDown5                00440df4 f   LIBCD:memcpy.obj
 0001:0003fdfc       UnwindDown4                00440dfc f   LIBCD:memcpy.obj
 0001:0003fe04       UnwindDown3                00440e04 f   LIBCD:memcpy.obj
 0001:0003fe0c       UnwindDown2                00440e0c f   LIBCD:memcpy.obj
 0001:0003fe14       UnwindDown1                00440e14 f   LIBCD:memcpy.obj
 0001:0003fe27       UnwindDown0                00440e27 f   LIBCD:memcpy.obj
 0001:0003fe40       TrailDown0                 00440e40 f   LIBCD:memcpy.obj
 0001:0003fe48       TrailDown1                 00440e48 f   LIBCD:memcpy.obj
 0001:0003fe58       TrailDown2                 00440e58 f   LIBCD:memcpy.obj
 0001:0003fe6c       TrailDown3                 00440e6c f   LIBCD:memcpy.obj
 0001:0003fb70       CopyUp                     00440b70 f   LIBCD:memcpy.obj
 0001:0003fb8c       CopyLeadUp                 00440b8c f   LIBCD:memcpy.obj
 0001:0003fba4       ByteCopyUp                 00440ba4 f   LIBCD:memcpy.obj
 0001:0003fbac       CopyUnwindUp               00440bac f   LIBCD:memcpy.obj
 0001:0003fce8       CopyDown                   00440ce8 f   LIBCD:memcpy.obj
 0001:0003fd10       CopyUnwindDown             00440d10 f   LIBCD:memcpy.obj
 0001:0003fd1c       CopyLeadDown               00440d1c f   LIBCD:memcpy.obj
 0001:0003fd34       ByteCopyDown               00440d34 f   LIBCD:memcpy.obj
 0001:0003f3a8       _gu_return                 004403a8 f   LIBCD:exsup.obj
 0001:0003f3b0       __unwind_handler           004403b0 f   LIBCD:exsup.obj
 0001:0003f360       _$$$00001                  00440360 f   LIBCD:chkstk.obj
 0001:0003f36c       probepages                 0044036c f   LIBCD:chkstk.obj
 0001:0003f380       lastpage                   00440380 f   LIBCD:chkstk.obj
 0001:0003f130       ?CatchGuardHandler@@YA?AW4_EXCEPTION_DISPOSITION@@PAUEHExceptionRecord@@PAUCatchGuardRN@@PAX2@Z 00440130 f   LIBCD:trnsctrl.obj
 0001:0003f240       ?TranslatorGuardHandler@@YA?AW4_EXCEPTION_DISPOSITION@@PAUEHExceptionRecord@@PAUTranslatorGuardRN@@PAX2@Z 00440240 f   LIBCD:trnsctrl.obj
 0001:0003ee70       _doexit                    0043fe70 f   LIBCD:crt0dat.obj
 0001:0003ef50       __initterm                 0043ff50 f   LIBCD:crt0dat.obj
 0001:0005a2f0       _$E24                      0045b2f0 f   libcpd:string.obj
 0001:0005a310       _$E20                      0045b310 f   libcpd:string.obj
 0001:0005a360       _$E23                      0045b360 f   libcpd:string.obj

FIXUPS: 5b114 1d e 1c 13 21 49 13 e e1b b fffff200 35 1d e 1c 13 21 25
FIXUPS: 5b2f9 5 5 16 50 fffe4bbc fffffe31 19 18 14 ffffff77 ffffff35 5
FIXUPS: 3fc56 1b282 13 e 109b b ffffef95 19 1067 b ffffefcf 23 e 44 f fc2
FIXUPS: 5bfdf fffff05c 13 21 4e 16 f21 b fffe46a8 1c 31 10 fffffebe 36
FIXUPS: 40632 fffffe5b 2d 12 6c 2d 18 fffffe27 fffffc74 60 33 63 4f 131
FIXUPS: 402a7 4d 4a fffffa8f 12 1d 20 1e 20 8d 12 13 ad5 2a 2a 10 fffffe72
FIXUPS: 408c9 14 22 10 2c 2a 10 ffffff01 a ffffff47 12 2a 10 1b 2a 10 fffffeaf
FIXUPS: 40729 2a 10 1b 2a 10 fffffe9f 12 18 16 165b a 21 154 31c 20 28a
FIXUPS: 41076 a 14 ffffff23 12 2c 10 1d 2a 10 ffffff4a ffffff67 1f ffffff6f
FIXUPS: 40a61 2b 28 16 1d 29 25 fffffe52 12 14 24 be9 2c 9 2c 9 2c 9 3d
FIXUPS: 41736 f3 23 23 23 3a 51 24 51 2a 28 45 2d 2d 28 28 1c 29 41 84
FIXUPS: 41c17 24 31 36 fffff477 50 9 2e 9 71 15 1b 51 9 2e 9 6e 15 37 15
FIXUPS: 413c8 14 1c 1c 1c 1b 36 3a 9 2e 9 48 9 2e 9 2e 1a1f 2e 2a 2e 14
FIXUPS: 4308c 22 fffffc92 3e 146 70 fffffce8 2a 75 fffffe26 66 1b 6c fffffe5e
FIXUPS: 42a53 f f 27 fffffe9a fffffc54 2d 18 1c 1e f ffffead5 15 2bf8 7d
FIXUPS: 43db4 fffffd92 2a 1e 17 13 fffffe94 2a 45 4b fffffc0e 15 15 28
FIXUPS: 43846 15 15 28 ea fffffb5d 5a 4f 79 fffffd0e 7a 6a fffffde9 2a
FIXUPS: 43239 1a 218b 59 84 58 bf fd 76 11e a1 20 31 28 4f 3a 31 18 45
FIXUPS: 45aac 1f 8c 69 2a 34 39 16 7c 2a 28 ffffdea1 e 28 76 ea8 6b 56
FIXUPS: 44c27 c 2b 1c 2c 1c 18 1f 62 51 60 5a ac 4e 51 2b 28 28 28 ac 2b
FIXUPS: 4515d 2b 39 20 49 33 142 23 ffffef9d 6b 28 32 4f 18 1f 5b 66 25
FIXUPS: 445b5 b3 19 59 5f 54 86 38 1f 2a 1c 50 1d 1f 62 34 3b 2b 3b 45
FIXUPS: 44ae3 c 166e 14 16 14 19 19 a 1c fffffc1c ffffdfe6 36 27 23 20
FIXUPS: 43ebe 2f 1c 69 28 5f 54 21 128 1e 1b 34 3e 52 38 3c 21 1b 1f49
FIXUPS: 4630b 47 fffffb6f 1e d 19 16 14 2c 1b 17 27 16 16 14 c 1d 16 15
FIXUPS: 4605e 14 11 14 16 14 f e 1e 20 16 15 c4d 35 6b 12 29 43 5a 3d 33
FIXUPS: 46fb8 38 1c 1a 18 17 fffff895 ffffff54 fffffee1 e f 10 a 5 5 25
FIXUPS: 46794 17 10 22 9 27 9 b3d 2e 18 18 7a 63 34 47 1e d 2f 15 11 1d
FIXUPS: 475c7 14 26 19d 18 19 19 a fffff11c 28 19f 20 57 14 32 64 140 2a
FIXUPS: 481b4 b9 31 1e 2a 1b 131 25 123 1e 30 75 32 22 26 14 170 55 53
FIXUPS: 47830 21 7e c8 33 49 fffff766 10b 2a 18 38 16 2b 2201 d a 13 16
FIXUPS: 49593 28 14 15 14 7 17 6b 20 fffff300 35 18 a6 10 fffff089 34 24
FIXUPS: 47c50 67 133 18 21 34 30 a8 e2 d5 d47 3f 25 b2 65 ce 36 12 38 4c
FIXUPS: 49173 16 f 17 37 19 92 18 20 62 a f3 12 24 f 1f 12 1e 26 f 1c 12
FIXUPS: 4ab21 c fffff28f 3d 49 132 31 fffffdb3 1f 7 10 fffffe9c 5e 7 fffffead
FIXUPS: 497cb 38 78 fffffeb4 22 fffff37a 32 92 3f 6a 15 31 51 ba 3c 27
FIXUPS: 48e23 3501 ffffe9b6 1c3 17 fffff167 1d 53 1d 2b 2c c 3a e 11 2f
FIXUPS: 4a1d7 c 3e e 11 182 1d8 1ac 2b 33 1b6 f4 27 36 44 c 10 21c1 fffffe95
FIXUPS: 4cbba fffffed3 3a ffffff09 1b c 10 29 2a fffffec1 45 fffffd3d a
FIXUPS: 4bd96 4b 15d 19 18 c 25 15 3b 5b 52 6c c7 53 66 53 25 2144 4a 3d
FIXUPS: 4e542 6c 62 20 77 27 70 46 31 35 44 35 1c 147 8a 32 24 f ffffea9a
FIXUPS: 4d186 2a 2a 227 fffff9f7 13 dd 23f fffffaf9 82 a1b 19 a4 1aa 1d
FIXUPS: 4da59 1de 32 97 1f 58 a8 28 33 43 64 46 41 12 2f 4d 23 10 70 24
FIXUPS: 4e157 46 2f c1 24 e5 39 1716 40 14 59 14 3f 6b fffffaa5 2f 80 36
FIXUPS: 4f57f 2a 29 3b 51 fffffe63 fffffd83 1ae fffffb5e 108 10 3e 54 4b
FIXUPS: 4f16d fffffadd 2a3 ffffe709 2d 47 4a 283e 6ef 192 19 de0 7e5 236
FIXUPS: 520a1 9e a3 102 119 ffffd958 1b 64 fffffebb 19 38 1d fffffb6a 17
FIXUPS: 4f8af 30 18 3f c 13 70 10 5c 62 37 42d1 fffffd2b a a fffffd1b 98
FIXUPS: 53983 fffff628 23 5 111 43 107 4a 12 5 25e 35 35 1e8 fffff83a fffffbc0
FIXUPS: 52bef 7f 24 62 38 61 18 28 ffffd0c6 23 4c5e 13 22 fffffe07 36 28
FIXUPS: 549cd 29 26 17 12 1c fffffcda ffffff70 d 11 2f 25 fffffdfa 50 c
FIXUPS: 545cd fffffa21 18 11b 21 4b 5d 17 b5 fffff92e 182 23e5 30 10 30
FIXUPS: 561cb fffff74a a7 fffffa75 21 21 24 2a 23 fffffd00 1c 77 3a 59
FIXUPS: 5531f 17 1d 14 13 14 1a 19 fffffcd3 4a 94 2b fffff903 56 1b3a 44
FIXUPS: 566bf fffffe4d 2a 44 4b ffffff11 fffffe19 29 ffffffa0 17 fffff815
FIXUPS: 55b25 8c 14 26f 19 1c 13 2a 3a 10 13 16 26 1e 41 93 20 68 82 16ff
FIXUPS: 5785a 1d 11 15 15 fffffabc 37 fffffc5f 2bf 2d 2f fffffaff 29 19
FIXUPS: 56e8c fffffd2e 85 69 33 8c 34 fffffd06 72 13 24 17 fffffda9 14
FIXUPS: 5688e 2b fffffd4d 2371 fffffc80 1d fffffe7b fffffb63 48 141 52
FIXUPS: 58202 140 fffffb7c 5f fffffbaa 4d 40 40 43 4d 40 43 50 50 4d 65
FIXUPS: 57e59 fffffb20 fffffadb 2a0 5a 34 37 60 234a ffffff4b fffffba4
FIXUPS: 59695 33 24 bd 2d 9b 32 43 c 10 c fffff35c 14d eb 1c8 8c 152 6d
FIXUPS: 594ed 13 fffff1f7 21 35 35 13a c 10 c 27 21fc 19 42 3c a7 19 28
FIXUPS: 5ac92 21 fffff822 19 d9 13f 9e fffff9e4 70 4f 1df fffffa1f a7 fffffc9d
FIXUPS: 59bfc 1c 1f 49 11 71 5f 1d c 47 fffffd4f fffa78a9 ba 13 5a2fb 1a
FIXUPS: 5b7be 28 30 30 fffffd65 13 2b c 2a 50 c 2b 3d c 3a fffffe06 fffff8c7
FIXUPS: 5a8a4 45 29 3a 40 3e 33 4b 59 5a fffa6e4c 12 1a 59f94 c c b fffa60e7
FIXUPS: 1a1e 4e 15 1c 25 21 59e51 b fffa61d8 1a 30 b b b b 10 fffff492
FIXUPS: 1048 3f b8 d3 bd 85 45 29f 7 7 7 7 5 7 7 7 7 7 7 7 7 7 7 7 f 15
FIXUPS: 16e3 14 31 39 c 38 ca 2a 44 7 12 2b 17 3499a 13 36 13 120 12 12
FIXUPS: 36484 12 12 12 12 12 12 12 12 17 a d fffcb03c 4b a a a a a a a
FIXUPS: 1619 a 7 7 33281 be 34 42 39 21 1f e 1c 49 93 30 2d 4a 2a 13 2d
FIXUPS: 34ceb 30 b6f 1b8 3ff 19 15 48 25 d ef 19e 7c 89 22 ffffd917 1e
FIXUPS: 33be5 2c 15 16 10 1e a d 21 10 85 7 7 7 7 7 7 7 d 366 9d 3a8 10
FIXUPS: 346cb 1e 2c 16 11c 1c 3f ffffef45 3c 14 14 19 d 43 19 1c 16 16
FIXUPS: 3392b 16 16 26 a 13 10 46 18 18 17 18 18 17 28 41 1f 19 10 43 28
FIXUPS: 32fbf 4f ac 9 43 30 80 13 30 e e 29 9 13 45 e e 15 10 3d 5c 17
FIXUPS: 333a7 b8 ae af 85 50 1f 31 27 c9 fffff130 1e 1d 24 b 86 24 35 c0
FIXUPS: 32b54 2f 2e 1a 19 35 1a 26 40 1a 3a 10 121 2e 23 26 9 3c 28c2b
FIXUPS: 5bb11 fffd742f 26 13 fffff1b0 1e 3d 42 43 c 26 20 24 29 21 30 e
FIXUPS: 3236d 9 13 44 12 1f 1f 1f f2 c4 f5 31 1f 31 2a 6f 67 3a 30 fffff11a
FIXUPS: 31a27 1d 1c 31 e e 19 13 30 e e 29 9 13 45 e e 15 10 3b b0 a7 9c
FIXUPS: 31e90 a7 4b 1f 31 27 a5 45 fffff521 30 10 a 2b 51 7 7 d 40 22 1b
FIXUPS: 31783 18 a 7 7 1b 16 13 25 13 35 ab 19 17 7 7 7 7 1f 48 fffff7e8
FIXUPS: 311b1 c 2f 2a 3c 1f 16 19 43 10 49 af 23 4d 7 10 7 4b 7 10 7 18
FIXUPS: 3151b d 10 3e d 10 10 a 4a fffff74b e 10 31 b b b b b e e e e e
FIXUPS: 30e44 e e c 10 4c b4 65 d 10 10 5d 4a 20 4c 27 13 48 fffff715 2f
FIXUPS: 308fd e4 19 3d 10 3c a6 10 44 d 10 10 a 40 10 a 7 38 34 b b b b
FIXUPS: 30cb8 e e e e e 36 fffff670 e e 36 e e e e 14 10 40 12d 1f 5c 1e
FIXUPS: 30683 2d 59 d 34 a 10 31 3d c 23 24 7 9 16 2b 2c fffff58c 2f 35
FIXUPS: 2feaf 27 2f 14 18 1a 12c 13 f 15 15 15 93 75 74 13 22 46 1f 36
FIXUPS: 3032f b b b e e e e e fffff3f9 40 28 f 73 2c20e c b fffd3e31 28
FIXUPS: 2f908 2c 32 49 6 f d 47 18 4c 24 2c017 c d c fffd4039 27 17 2bf94
FIXUPS: 5baf2 fffd409b 1fc fffff174 10 df 19 5e 2c 15 1d 75 10 2da 15 4a
FIXUPS: 2f48d e 23 29 3d 5e 2c4e3 c fffd3b5e 22 3c 19 c 3b 16 15 27 37
FIXUPS: 2f73f fffff236 35 4b 43 4d 1e 2b 53 1e 2b 51 1e 2e ac 9 11 e 37
FIXUPS: 2ed2f 2cce6 b fffd3373 9 11 e 37 1d 2cc36 b fffd3438 1e 1b fffff565
FIXUPS: 2e440 3f c 1a 17 17 1c 4b 15 1a 58 3c 13 3d 13 3d 13 3d 13 3d 13
FIXUPS: 2e78d 13 3d 13 48 13 4a 27 49 28 fffff470 d 10 ac 15 14 10 57 29
FIXUPS: 2df38 6e 21 1d 15 77 31 45 31 31 29 13 13 7b 1d 15 72 31 20 15
FIXUPS: 2e32f 55 1a fffff530 c 1a 22 10 28 25 d 1f 46 d 10 43 d 10 48 d
FIXUPS: 2dac7 52 d 10 5b d 10 6e d 10 75 f 10 68 34 fffff665 9e 33 34 1b
FIXUPS: 2d50e 1d 1b 1a 1b 1b 1a 16 5a 2b 18 f 17 2e35b b fffd1cf6 16 6f
FIXUPS: 2d7aa c 2f 11 1d 10 32 13 23 fffff5bb 7 1d 42 13 3d 13 3d 13 3d
FIXUPS: 2cfaf 4b 13 4d 13 34 4c 9 1e 34 51 1f 1d 41 27 2a 9 14 29 7a 21
FIXUPS: 2d376 fffff75a 5f 12 54 7 7 d 79 7 7 7 7 7 45 7 7 7 7 7 d 57 7
FIXUPS: 2cd26 7 d 49 13 7f 15 7 7 7 fffff77e 67 3a 3e 13 3d 13 3d 13 3d
FIXUPS: 2c79f 4b 13 4d 13 49 13 dd 7 7 7 7 7 7 15 58 c 7 7 7 d 63 fffff180
FIXUPS: 2bca2 5e 26 23 3c 100 f2 1b3 40 5a 25 7b 30 15 e 1a 26 13 53 25
FIXUPS: 2c3b4 21 e 1d 48 4b 11 10 59 2a 76 fffff028 1f 13 29 1c 31 18 32
FIXUPS: 2b6e3 2a 18 32 1c 2a 20 10 75 15 13 42 19 3b 73 27 13 15 1d 2a
FIXUPS: 2ba37 2d 20 11f fffff1d9 38 3a 18 18 e e e 10 58 33 d 144 27 d
FIXUPS: 2b1c4 1c4 27 a 35 6 46 30 a 45 30 a 36 2a 37 c 20 fffff329 1c 24
FIXUPS: 2a947 a 7 38 c5 1d 29 41 4b 1e 24 28 a 7 2b 25 16 d a 38 55 19
FIXUPS: 2ace1 26 10 a 7 d 2e fffff401 18 2f 1f 3a e e e e 16 10 e4 128
FIXUPS: 2a490 65 10 24 19 b8 2a 25 a 7 32 f0 36 2e 23 1c 25 36 28 fffff302
FIXUPS: 29bba 22 40 a d a 7 28 2b 32 10 75 ad 56 7 138 a d a 22 3c 14 8
FIXUPS: 2a062 1f 43 25 23 f 12 25 fffff4c5 b3 d 65 e e e e e e e e e 10
FIXUPS: 29824 27 16 61 a 25 2b 2a 5d 72 10 9c 13 13 35 1b 33 a fffff371
FIXUPS: 28f46 ff 4c 59 38 10 57 2b 28 33 d 27 7 2d 13 b7 63 22 30 12 12
FIXUPS: 29456 f d 47 9 d 8b 56 7 1e fffff347 13 7 36 16 2f d 19 d 25 b7
FIXUPS: 28ad9 30 3b 16 37 16 36 16 31 16 1c c3 19 31 37 10 31 10 1c 4e
FIXUPS: 28e8d ffffef4c 1f d1 ab f0 22 19 23 1b 1b 1c 25 421 5b 77 46 1e
FIXUPS: 2869e 27 10 bd 1b 13 7 32 16 22 19 27 25 4f 30 ffffee23 4a 30 33
FIXUPS: 27818 a 32 16 2d 13 16 3b 19 28 2a 2b 34 39 43 44 b 8 8 63 4e 89
FIXUPS: 27bf9 f5 6a e b 55 ffffef1c 1c 10 48 c d 247 13 9 c 20 1d a ce
FIXUPS: 27156 4c d0 11 16 10 2d2 22 27 7 32 26 7 39 1d 2f 4c 33 fffff3e8
FIXUPS: 26b24 e e e e e e e e e e e e e e e e e e e e e e e e e e e e e
FIXUPS: 26cce fffffc1a e e e e e e e 14 14 1d c 10 61 e e e e e e e e e
FIXUPS: 26a98 e e e e e e e e fffffc20 e e e e e e e e e e e e e e e e
FIXUPS: 26816 e e e e e e e e e e e e e e fffffc1e e e e e e e e e e e
FIXUPS: 26592 e e e e 14 14 29 a c 10 5b e e e e e e e e e fffffc1e e e
FIXUPS: 26362 e e e e e e e e e e e e e e e e e e e e e e e e e e e e fffffa79
FIXUPS: 25f70 19 7 d 4f d 15 d a 32 21 7 3c 7 d a 16 5f 7 13 21 1e 7 d
FIXUPS: 261d0 d a 42 99 5a e fffff4ed 17 16 32 3f 10 2dc 96 b b b b b e
FIXUPS: 25c8a e e 36 72 10 36 4a 65 36 7 16 38 7 28 7 f 10 fffff5b0 10
FIXUPS: 254f3 3a 7 39 a 7 1c 1f 2c 13 13 b 6c 18 18 15 16 16 14 30 a 29
FIXUPS: 25774 d a 1c 16 17 16 17 fffff7e6 c 30 26 26 7 7 27 19 18 e 2b
FIXUPS: 2512c 2e 7 c 15 15 15 15 18 17 4c 27 27 1c 54 de 6a 14 10 57 fffff2d7
FIXUPS: 247a3 50 3ac 24 2d 2d 37 1a 19 c 98 c 45 42 42 7 3a 10 1e a 1a
FIXUPS: 24ec1 1d 1d c 30 1d 1d c 30 1d fffff18e 15 15 f d1 3d 69 4a 25
FIXUPS: 2437e 33 28 7 ea 2f 59 c 29 c 1c 1c 5b 1c 1d 16 2f 25 7 35 a 16
FIXUPS: 2472c ffffec41 e e e e e e e e 15 3f0 595 10 3c 10 26 23 23 27
FIXUPS: 23e93 30 2d 2d 30 2d 2d 30 25 69 33 67 4d ffffefe5 90 b b e e e
FIXUPS: 2320f e e e e e e e e e e e e e e e e e e e e e e e e fffff12a
FIXUPS: 224e6 5e 2de 1f 4b 41 10 47 3c 41 10 47 3f e e e e e e e e 6c 6b
FIXUPS: 22b8e 59 44 18 43 415 73 7 ffffe7be 72 66 67 8 21 51 23 24 8 d
FIXUPS: 21b5a 4a 4a 4a 4a 4d 22 40 10 73 37 1af 9b 28 5e af 2c 1e2 1f aa
FIXUPS: 2245d fffff019 1f 2d 26 10 38 12 7 20 1a 22 30 2a 10 37 12 7 22
FIXUPS: 216e9 2f f 3a 2f f 3a 32 f 1b 21 44 13 13 fffff6ba 31 d 3b d 71
FIXUPS: 2109f a 19 43 4c 34 1c 25 12 6e a d 3e 10 3d 37 43 38 1b 24 7 7
FIXUPS: 21411 10 36 8 fffff499 18 10 33 26 18 38 1b 1f 16 d 16 10 45 2e
FIXUPS: 20ac9 19 4b 67 4d 34 25 28 10 2f 19 45 19 41 b1 bc 81 ffffef3e
FIXUPS: 1fe98 13 16 22 10 224 38 1c 30 2c 7 7 5c 62 8 50 13 41 20 1a 27
FIXUPS: 203bc 10 43 113 11c 10e a5 75 38 31 ffffecf0 32 b7 c8 bd 81 b8
FIXUPS: 1f9a1 31 2c 20 27 a 10 34 d 71 2e a 19 43 ec d 51 6a 1e 31 47 31
FIXUPS: 1fe2a 25 26 fffff43e 7 7 7 7 7 7 7 7 7 7 7 d 34 e e e 19 6b e e
FIXUPS: 1f419 88 17 17 12 1f 1c 12 1b 1b 19 fffff714 7 16 80 a d 10 6d
FIXUPS: 1ee7b d0 34 61 26 f 26 f 1d 12 27 10 19 f 1f 52 2e 10 10 8c 74
FIXUPS: 1f29e 7 7 fffff26d e e 19 77 e e e e e e e e e e e e e e 71 73
FIXUPS: 1e77a 4e 41 2b 24 ff 1b 5f d 44 22c fffff569 1a 1e 17 2b 2b 27
FIXUPS: 1e2b2 1d 10 50 25 13 13 29 16 30 16 16 25 37 e e e e e e e e e
FIXUPS: 1e4fd e fffff734 38 31 27 a2 16 42 a4 f 12 25 19 10 23 10 10 42
FIXUPS: 1df8f a 19 4b 10 60 21 d 47 2c 1a 1e 15 21 13 fffff389 18 10 31
FIXUPS: 1d57f e e e 19 73 e e e e 5c 24 19 a 13 11 16 12 20 43 17 12 35
FIXUPS: 1d895 d1 e7 d8 8c fffff1ba 12 31 10 4f 26 18 10 42 c3 c6 80 63
FIXUPS: 1d141 31 c3 16 4e 2b 26 d 4a 13 19 22 85 1c 19 21 10 42 26 fffff34a
FIXUPS: 1c85a 70 34 3a 18 56 28 2a 8c 2c 11 55 67 7f 10 8 10 10 14 1c 12
FIXUPS: 1cc90 3ed37 b fffc12ef e e 19 39 e e fffff068 44 9 cd ca e 7e 51
FIXUPS: 1c0ac 31 2a 15 10 3d 13 19 a6 58 137 87 12 3a 18 34 13 19 19 b4
FIXUPS: 1c757 77 36 12 fffff04c 2a c d 55 1f 30 1f 2d 59 28 c 2f 69 5a
FIXUPS: 1bb29 30 3b 30 65 24 20 3fd1a d e e c fffc02cd 4f 10 9a 12 fffff584
FIXUPS: 1b34a 47 1e b 39 22 2f 22 42 46 40467 b b c fffbfbdf 47 47 47 47
FIXUPS: 1b6b9 29 2f 13 13 3a 13 13 3a 13 13 57 fffff570 38 1f 25 10 7 7
FIXUPS: 1ae5f 7 7 7 7 7 10 60 29 34 33 16 85 7d 7f 3f 36 29 28 29 10 29
FIXUPS: 1b24f 5a 61 fffff3ce 16 17 3a 1b 1e 24 1f 1f 65 47 2c 1d 41 19
FIXUPS: 1aa39 1d 17d 3a 58 53 20 5b 34 1f 7 7 7 7 7 7 7 fffff482 10 1d
FIXUPS: 1a298 45 2b 2a 10 13 18 10 13 44 16 36 39 38 b8 10 13 16 13 27
FIXUPS: 1a5e7 2b 13 16 13 18 24 1f 1f ffffef34 1b 19 21 177 198 d5 33 19e
FIXUPS: 19c33 11 2c 10 16 29 11 15 10 1d 1d 42 4b e 12 1b4 3b 10 16 2d
FIXUPS: 1a1d5 3e 10 ffffec87 7 d 64 29 54 34 33 3d 32 31 3d 80 27 85 8a
FIXUPS: 19324 10 31 e e e 44 33 2f 10 74 32 9 43 2e 78 fffff2ee 1a 1e 13
FIXUPS: 18945 1a 1e 17 33 2c 33 d a0 17 a9 17 122 45 22 46 1e 1a 10 aa
FIXUPS: 18e72 7 7 7 7 7 7 7 fffff130 335 10 56 19 2a 1f 16 13 16 24 22
FIXUPS: 1846b 10 4b 3f 1f 1a 18 17 18 18 75 e4 18 30 15 2b a5 1c 22 3b
FIXUPS: 1717e 157 15f 169 154 c0 15d 45 38 31 2a 151 16 40 2c 15 13 2c
FIXUPS: 17c26 22 19 18 2f 40 43 22 44 b b 201 15 b ffffe595 19 33 e e d6
FIXUPS: 166ba 1f 1f 1f 1f 3f 19 11 10 3c 1f 12 2d 155 168 154 c1 15c 45
FIXUPS: 16ef4 31 2a 3f d 3f 41 ffffee8b 31 7 41 38 f 16 19 f 10 3c 17 26
FIXUPS: 16070 17 26 1c 38 17 24 28 2b 2a 2e 2f 33 35 10 14 10 28f e ffffe905
FIXUPS: 14e61 100 3d 39 233 53 2c 14 1b 1ed 8a 61 dc 35 95 1c 2b 1fe db
FIXUPS: 15ca2 26 5b 23 f 34 3b 2e 17 4e 19 2f ffffeae0 44 10 2e e e e e
FIXUPS: 14a47 e e e 21 19 36 e e e e e e e e 21 19 3e 20 61 32 1f ac a7
FIXUPS: 13691 16 f 4a 8 e 33 16 629 6 13 57 71 17c 128 ab 3cb 18 18 22
FIXUPS: 14631 112 35 4c 2c 11 10 da a d 34 39 ffffe6a7 7 24 2e 27 7 26
FIXUPS: 130d2 29 a1 123 d e7 d 19 25 b b 14 8d 22 19 2c 7 26 22 7 52 2c
FIXUPS: 13640 2f f fffff2b3 5a 2e 2e 41 8f 1c 1c 1c 1c 73 57 18 10 5c 26
FIXUPS: 12ccc 33 22 12b 37 40 1b 1b d 3d 1b 1b d 13 25 38 fffff514 e e
FIXUPS: 12534 e e e e e e e e e e e e 16 1c 10 10 1b 63 45 32 30 60 47
FIXUPS: 12822 47 47 2b 28 fffffa09 e e e e e e e e 16 19 39 e e e e e e
FIXUPS: 12446 e e e e e e e e e e e e e fffffb96 46 46 33 33 e e e e e
FIXUPS: 121d8 e e e e e e e e e e e e e e e e e e e e e fffff8a4 3e 18
FIXUPS: 11c13 1a 1b 1b 1a 1b 1b 1a 1b 1b 1f 41 18 1b 1a 1b 1b 1a 1b 1b
FIXUPS: 11e50 1b 1b 1a 1b 1b 22 10e 46 fffff47d 225 18 10 31 d 47 4f 5d
FIXUPS: 11860 64 3a 42 18 1b 1f 3e 18 1b 1a 1b 1b 1f 3e 18 1b 1a 1b 1b
FIXUPS: 11b4d 1b 1b ffffe48e f 26e f 78 f 60 16 2cf 2f e9 11 10 42 1a 5f
FIXUPS: 1087b 10 1ed 59 88 d 3d4 d 15e a6 a3 93 81 3b 10 16f ffffe12c a8
FIXUPS: f6d7 c 3c 19 12 99 9 54 c 22 233 e e e 10 3c e e e 17 3e 44 25
FIXUPS: fc42 1f 18 e 35 285 f ffffdc66 13 32 171 6d 6e 72 6e 50 91 140
FIXUPS: e15b 237 b1 12f d6 2f 10 30 10 30 10 997 20d 9e 86 102 17 19 41
FIXUPS: f55a 4b ffffd88f 7 7 13 10 2f a 7 10 2f a 7 10 16 23 1b 2b 2b 1e
FIXUPS: cfda a 30 1e d a 33 25d 64 94 275 13 43e fffff043 32 6 24 43 7
FIXUPS: cb8d a 13 10 36 a 7 10 2f a 10 3b 14 28 17 13 22 22 1a 10 39 7
FIXUPS: cdbc d 21 43 fffff132 4d 1e 1e d 3e a1 ee 9e 19 71 fc 193 34 96
FIXUPS: c659 34 93 a7 10 30 10 41 97 1a 2c 82 12 80 b 2c 2f ffffda7d 2b
FIXUPS: a629 32 1a5 19 29 13 19 1c 48 10b 1c 32 af af 32 af 1f 32 8f 27f
FIXUPS: aff6 b6 18d 2d b1 67a 7c d0 7e 388 ffffdc5f 8 10 40 10 24 1d 9
FIXUPS: 9c0b 15 ba 1e 16 138 46 26 2d a 7 7 20 76 e2 66 19 25 4b 57 5d
FIXUPS: a270 226 13 ffffe9b4 b b 1d 289 32 22 35 30 b b b 1d 18d 32 22
FIXUPS: 9426 2c 129 3f 4e 1f 45 1c 62 1f 69 1f 31 ff 31 15f ffffef3c 26
FIXUPS: 8a76 9b 39 18 f f 11 27 10 a d 35 36 1b a d 2f 46 21 e 21 11 1f
FIXUPS: 8db5 7 34 a 7 1c 35 fffff45a 1e b 24 24 23 2c 1b 27 b 20 23 3b
FIXUPS: 8444 22 2d 1a 43 61 7 1f 5d 8d 8d 72 77 52 1f bb 21 b 2f fffff329
FIXUPS: 7da4 2e 59 13 13 13 13 13 e 7c 49 1f 3d 15 16 16 16 16 e a4 31
FIXUPS: 811e 16 16 16 16 e 9c 37 d 22 ffffea7e 33 a5 1db a5 c1 1f 184 1c
FIXUPS: 733d 1c 3e 13 5a 6b 56 1f 2d 13 4b 1c d6 81 81 81 81 31 232 1f
FIXUPS: 7b97 1c 2f ffffea69 c b 15 a 15 a 15 c 21 a d 22 3b 46 c 3f 10
FIXUPS: 6819 34 47 22 e 1c 37 38 5a b6 1f 96 1f 34 fffff12c 31 10 1f 34
FIXUPS: 5d57 22 601 19 12 18 14 f 52 d 10 3b 43 1f 1f 1f 1f 1e 1a 1a 1a
FIXUPS: 65cf 29 15 a 15 a ffffeed7 1d 14 51 7 1f 2c f9 3f 1c 37 1f 1f 66
FIXUPS: 582c 35 8 14e 45 28 1f 60 50 2f 68 23 4b 7 1f 39 10 a fffff250
FIXUPS: 4ecc 21 d 1b a d 22 3c ab 2c 29 e 1f 52 18 c 17 2d 31 7 1f 1d4
FIXUPS: 53a9 1f 1f 45 1f 1f 3d d 10 fffff40f 1c 33 8 242 3e 20 6 5d 7 10
FIXUPS: 4c73 4c d 10 a 1f 1f 20 10 e 21 d a 1f 46 26 1b 14 14 d 2c fffff38a
FIXUPS: 4241 16 23 5c 1f 32 10 1f 26 e 42 50 30 e 42 42 42 32 27 29 29
FIXUPS: 45f2 138 6 10 125 12 b 21 13 12 fffff4f0 1f 37 d 1f 4e 11 6 18
FIXUPS: 3ed1 1f 6 f f 19 4e 18 a 2f 56 31 29 13 13 5f 3e 13 13 23 33 1f
FIXUPS: 4216 fffff0e4 1c7 54 10 28 41 189 10 169 1c 64 1c b9 19 13 4b 1f
FIXUPS: 3ab7 d 22 81 1f 33 15 16 16 69 1f 60 15 2e 52 ffffe709 13 30 d
FIXUPS: 2845 1c 64 1c 8c 1c 64 1c be 1c 5a 1c 6c 1c 307 1c 51 1c 13d 1f
FIXUPS: 3104 13 12 b 1c ac cb 2b ffffec0d 2a 5 d 5b d 2b 10 30 d 2e 5 d
FIXUPS: 208e d 33 10 30 d 97 3a d6 22 4e 22 34 22 25 22 14 19 30 387ef
FIXUPS: 3ac5b 7 1a 74 fffc6ed9 d 2c 11 19 25 23 1b 2a d 3b d 2b d 55 2e
FIXUPS: 1dda d 22 d 34 11 24 10 2a d 2c 387ea 10 25 71 1d 51 26 1f 87 52
FIXUPS: 3a926 3b 22 18 4c 28 26 2e 23 f 13 49 a 22 17 8 8 2c 3e 1d 1e b
FIXUPS: 3a268 21bef c c b fffde432 52 21 21b65 b fffde4c8 1a 39 21 36 2e
FIXUPS: 3a46e 16 37 a 36 a 31 7 7 7 13 22 31 d 48 22 fffff8ce 2b 17 12
FIXUPS: 39f64 21ec3 c b fffde150 3e 18 15 19 1f 17 11 26 2f 35 18 1a 38
FIXUPS: 3a17d 24 12 2b 13 21 7 14 f 12 21ba0 fffddc90 15 6c 20 d3 2f 27
FIXUPS: 39c4f 1e 18 1a 22168 b fffddebc 24 13 19 1a f f 3a b5 2a 37 17
FIXUPS: 39ecc 7 7 7 7 7 fffff88b 49 14 a0 8 b 12 28 21 2c 27 7 7 7 7 7
FIXUPS: 39962 7 12 37 27 7 7 7 7 7 7 7 12 1a 223a1 c fffdd5fc 15 19 16
FIXUPS: 39484 f 2c 2c 43 7 c c 3a 34 20 22 1e 22 24 2b 17 f 12 1a 226c9
FIXUPS: 5bdb3 c b fffdd94b 15 12 29 fffff900 f 12 1a 22cb7 c c b fffdd354
FIXUPS: 390ef 21 22 2b 7 10 12 12 1a 22bd5 b fffdd457 11 69 20 13 10 25
FIXUPS: 392db 8c 11 13 33 fffff7d7 55 ec 49 1c 36 b b e e e e 10 32 d 30
FIXUPS: 38e5f 15 19 16 1f 15 3f c 1f 3a 41 29 13 7 24 2b fffff78e 15 4d
FIXUPS: 3884a c 38 47 3f 5a 7 7 7 12 2b 17 f 12 1a 232f5 c c b fffdcd32
FIXUPS: 38a71 4a 1e 15 24 23222 b fffdce08 2b fffff87b 2b 17 f f 12 1a
FIXUPS: 5bca7 c c c b fffdc7f6 15 e 53 5c 52 20 11 5b 23668 b fffdc9c8
FIXUPS: 386ec 35 d 30 21 13 19 16 fffff6fd 21 f 7 2b 17 f 12 1a 23d05 c
FIXUPS: 5bc8f b fffdc304 21 13 19 16 26 49 15 1b 24 c 160 be 3e 28 29 3e
FIXUPS: 383c2 7 fffff691 3a 33 31 30 7 7 7 12 2b 17 f 12 1a 2407b c c b
FIXUPS: 37c07 da 2d 24 13 19 16 2d c 1e 44 51 25 12 23d6c c b fffdba68
FIXUPS: 37697 e e e e c 20 37 43 72 20 46 7 77 24359 b fffdbcd2 d 30 24
FIXUPS: 37977 19 16 1f 60 7 16 c fffff867 7 1b a c b 18 2a 19 63 50 38
FIXUPS: 37458 1a 24765 b fffdb8bc 24 13 19 29 3e 24 21 f 7 2b 17 f 12 1a
FIXUPS: 5bbf7 fffdb2e4 48 7 7 14 12 1a 24c16 c b fffdb400 24 15 16 2c 3b
FIXUPS: 3709f 13 1c 7 17 1a 24ab1 b fffdb56c 24 15 44 3e 24 15 2f 248d6
FIXUPS: 5bb32 fffdb05c 15 18 38 1e 4f 7 7 7 7 17 1a 24e9a b fffdb1ac 15
FIXUPS: 36d2b 3b 24 3b 7 7 17 1a 24d63 b fffdb2dc 15 16 3f 8aeb 1c5d6 e
FIXUPS: 3f9ee d 36 13 13 32 5 d 73 10 ffff6a3b 108 b b 19 2b a2 1a3 46
FIXUPS: 36959 de 15 28 3a 2b 28 7 17 1a 8850 18 34 17 35 2b 56 23 22 4c
FIXUPS: 3f549 1b 2e 17 1c9bd fffe368b 17 1f c d 32 10 72 1a 76 10 d6 10
FIXUPS: 3f8af 38 6d 1f fffff511 10 2e 10 34 10 b1 7 c e b 10 e b 10 c c
FIXUPS: 3f06b c9 10 2e 10 34 10 6e 10 30 1a 37 17 69 10 fffff66e 10 4a
FIXUPS: 3ea33 13 13 13 3d 8 49 1d 15 10 39 10 b4 10 68 a 18 17 21 1a 13
FIXUPS: 3ed5c 15 2f c 25 f 62 10 fffff840 11 11 f 8 c 15 11 d 1b 14 10
FIXUPS: 3e783 c 11 11 f 35 17 f 1a 2e 20 25 18 37 d 2d 13 13 40 1d fffff7c1
FIXUPS: 3e183 17 3e 17 34 c 11 11 f 34 10 30 1a 37 17 3c 17 62 c 12 b e
FIXUPS: 3e439 b 15 c 1b 17 142 64 44 fffff484 17 f 1a 2e 20 25 18 37 d
FIXUPS: 3dcd2 10 93 10 2f 1a 77 e 17 3b e 17 3e 17 128 6d 3b 1c f f b 10
FIXUPS: 3d74a e e 15 20 15 10 f 10 36 10 5d 10 d 2e 10 82 17 28 11 3a 38
FIXUPS: 3da2d 12 b e 11 b 15 c 1b 17 fffff988 1c f f b 10 31 f f f 21 2e
FIXUPS: 3d563 36 f d 30 f f d 3d d 37 a 8 31 e 17 11 9 19 16 fffff920 21
FIXUPS: 3d0b5 e 17 3e 17 6a f d 32 7 c e b 10 e b 10 c c 27 36 10 33 10
FIXUPS: 3d349 18 34 17 43 20 1eb07 fffe0e26 18 19 8 f 15 c 1a 1f165 9 17
FIXUPS: 5bf4f fffe0eae 10 40 14 10 3c c 10 3a d 35 d 35 1e 3a 20 36 f f
FIXUPS: 3c8c1 25 23 17 13 1a 1f 29 1f 1f 21 1d 4b 13 1b 14 3f 16 d 4c 13
FIXUPS: 3cb7a 14 3f 16 d 56 13 15 1a 1f26c 17 fffe0322 1e 19 21 31 1c 98
FIXUPS: 3c3ba f 39 16 16 31 15 5a 1f 1e 19 20 3c 33 1c 98 50 f 39 16 16
FIXUPS: 3c758 1f 111 1a fffff4af 3b 20 16 67 15 1f 16 10 35 1f 2b 8 15
FIXUPS: 3bf39 9 15 e 3b 29 1c 9f 50 f 30 16 21 23 18 1b 10 5e fffff52f
FIXUPS: 3b752 18 1b 16 15 ae 21 1c 9f 50 19 20 2f 60 47 25 e 22 1c 14 e
FIXUPS: 3bb63 34 34 37 37 50 25 41 12 3e fffff4c4 16 15 17 20c95 b fffdf3b3
FIXUPS: 3b2bb b 33 19 4d 1c 28 1f 1c 5c 90 28 22 52 3a 15 18 19 6f 22 25
FIXUPS: 3b6fd 13 f f fffff5f0 7a 17 1f d 29 63 e 11 9c 1d 28 f f d 2c 1b
FIXUPS: 3afe8 20 20e9c c c b fffdf174 8a 1d 1d 40 10 57 1f 1f
